
Winder.elf:     file format elf32-avr

Sections:
Idx Name          Size      VMA       LMA       File off  Algn
  0 .data         00000214  00800200  000032fc  000033b0  2**0
                  CONTENTS, ALLOC, LOAD, DATA
  1 .text         000032fc  00000000  00000000  000000b4  2**1
                  CONTENTS, ALLOC, LOAD, READONLY, CODE
  2 .bss          0000024a  00800414  00800414  000035c4  2**0
                  ALLOC
  3 .eeprom       0000000f  00810000  00810000  000035c4  2**0
                  CONTENTS, ALLOC, LOAD, DATA
  4 .comment      0000005c  00000000  00000000  000035d3  2**0
                  CONTENTS, READONLY
  5 .note.gnu.avr.deviceinfo 00000040  00000000  00000000  00003630  2**2
                  CONTENTS, READONLY
  6 .debug_aranges 000000e8  00000000  00000000  00003670  2**3
                  CONTENTS, READONLY, DEBUGGING
  7 .debug_info   00001587  00000000  00000000  00003758  2**0
                  CONTENTS, READONLY, DEBUGGING
  8 .debug_abbrev 00000d11  00000000  00000000  00004cdf  2**0
                  CONTENTS, READONLY, DEBUGGING
  9 .debug_line   00001114  00000000  00000000  000059f0  2**0
                  CONTENTS, READONLY, DEBUGGING
 10 .debug_frame  00000424  00000000  00000000  00006b04  2**2
                  CONTENTS, READONLY, DEBUGGING
 11 .debug_str    00000a95  00000000  00000000  00006f28  2**0
                  CONTENTS, READONLY, DEBUGGING
 12 .debug_loc    00000913  00000000  00000000  000079bd  2**0
                  CONTENTS, READONLY, DEBUGGING
 13 .debug_ranges 000000b8  00000000  00000000  000082d0  2**0
                  CONTENTS, READONLY, DEBUGGING

Disassembly of section .text:

00000000 <__vectors>:
       0:	f2 c0       	rjmp	.+484    	; 0x1e6 <__ctors_end>
       2:	00 00       	nop
       4:	11 c1       	rjmp	.+546    	; 0x228 <__bad_interrupt>
       6:	00 00       	nop
       8:	0f c1       	rjmp	.+542    	; 0x228 <__bad_interrupt>
       a:	00 00       	nop
       c:	0d c1       	rjmp	.+538    	; 0x228 <__bad_interrupt>
       e:	00 00       	nop
      10:	0b c1       	rjmp	.+534    	; 0x228 <__bad_interrupt>
      12:	00 00       	nop
      14:	09 c1       	rjmp	.+530    	; 0x228 <__bad_interrupt>
      16:	00 00       	nop
      18:	07 c1       	rjmp	.+526    	; 0x228 <__bad_interrupt>
      1a:	00 00       	nop
      1c:	05 c1       	rjmp	.+522    	; 0x228 <__bad_interrupt>
      1e:	00 00       	nop
      20:	03 c1       	rjmp	.+518    	; 0x228 <__bad_interrupt>
      22:	00 00       	nop
      24:	01 c1       	rjmp	.+514    	; 0x228 <__bad_interrupt>
      26:	00 00       	nop
      28:	ff c0       	rjmp	.+510    	; 0x228 <__bad_interrupt>
      2a:	00 00       	nop
      2c:	fd c0       	rjmp	.+506    	; 0x228 <__bad_interrupt>
      2e:	00 00       	nop
      30:	fb c0       	rjmp	.+502    	; 0x228 <__bad_interrupt>
      32:	00 00       	nop
      34:	f9 c0       	rjmp	.+498    	; 0x228 <__bad_interrupt>
      36:	00 00       	nop
      38:	f7 c0       	rjmp	.+494    	; 0x228 <__bad_interrupt>
      3a:	00 00       	nop
      3c:	f5 c0       	rjmp	.+490    	; 0x228 <__bad_interrupt>
      3e:	00 00       	nop
      40:	f3 c0       	rjmp	.+486    	; 0x228 <__bad_interrupt>
      42:	00 00       	nop
      44:	0c 94 8e 0f 	jmp	0x1f1c	; 0x1f1c <__vector_17>
      48:	ef c0       	rjmp	.+478    	; 0x228 <__bad_interrupt>
      4a:	00 00       	nop
      4c:	ed c0       	rjmp	.+474    	; 0x228 <__bad_interrupt>
      4e:	00 00       	nop
      50:	eb c0       	rjmp	.+470    	; 0x228 <__bad_interrupt>
      52:	00 00       	nop
      54:	e9 c0       	rjmp	.+466    	; 0x228 <__bad_interrupt>
      56:	00 00       	nop
      58:	e7 c0       	rjmp	.+462    	; 0x228 <__bad_interrupt>
      5a:	00 00       	nop
      5c:	0c 94 74 11 	jmp	0x22e8	; 0x22e8 <__vector_23>
      60:	e3 c0       	rjmp	.+454    	; 0x228 <__bad_interrupt>
      62:	00 00       	nop
      64:	0c 94 45 0f 	jmp	0x1e8a	; 0x1e8a <__vector_25>
      68:	df c0       	rjmp	.+446    	; 0x228 <__bad_interrupt>
      6a:	00 00       	nop
      6c:	dd c0       	rjmp	.+442    	; 0x228 <__bad_interrupt>
      6e:	00 00       	nop
      70:	db c0       	rjmp	.+438    	; 0x228 <__bad_interrupt>
      72:	00 00       	nop
      74:	d9 c0       	rjmp	.+434    	; 0x228 <__bad_interrupt>
      76:	00 00       	nop
      78:	d7 c0       	rjmp	.+430    	; 0x228 <__bad_interrupt>
      7a:	00 00       	nop
      7c:	d5 c0       	rjmp	.+426    	; 0x228 <__bad_interrupt>
      7e:	00 00       	nop
      80:	0c 94 81 10 	jmp	0x2102	; 0x2102 <__vector_32>
      84:	d1 c0       	rjmp	.+418    	; 0x228 <__bad_interrupt>
      86:	00 00       	nop
      88:	cf c0       	rjmp	.+414    	; 0x228 <__bad_interrupt>
      8a:	00 00       	nop
      8c:	cd c0       	rjmp	.+410    	; 0x228 <__bad_interrupt>
      8e:	00 00       	nop
      90:	cb c0       	rjmp	.+406    	; 0x228 <__bad_interrupt>
      92:	00 00       	nop
      94:	c9 c0       	rjmp	.+402    	; 0x228 <__bad_interrupt>
      96:	00 00       	nop
      98:	c7 c0       	rjmp	.+398    	; 0x228 <__bad_interrupt>
      9a:	00 00       	nop
      9c:	c5 c0       	rjmp	.+394    	; 0x228 <__bad_interrupt>
      9e:	00 00       	nop
      a0:	c3 c0       	rjmp	.+390    	; 0x228 <__bad_interrupt>
      a2:	00 00       	nop
      a4:	c1 c0       	rjmp	.+386    	; 0x228 <__bad_interrupt>
      a6:	00 00       	nop
      a8:	bf c0       	rjmp	.+382    	; 0x228 <__bad_interrupt>
      aa:	00 00       	nop
      ac:	bd c0       	rjmp	.+378    	; 0x228 <__bad_interrupt>
      ae:	00 00       	nop
      b0:	bb c0       	rjmp	.+374    	; 0x228 <__bad_interrupt>
      b2:	00 00       	nop
      b4:	b9 c0       	rjmp	.+370    	; 0x228 <__bad_interrupt>
      b6:	00 00       	nop
      b8:	b7 c0       	rjmp	.+366    	; 0x228 <__bad_interrupt>
      ba:	00 00       	nop
      bc:	b5 c0       	rjmp	.+362    	; 0x228 <__bad_interrupt>
      be:	00 00       	nop
      c0:	b3 c0       	rjmp	.+358    	; 0x228 <__bad_interrupt>
      c2:	00 00       	nop
      c4:	b1 c0       	rjmp	.+354    	; 0x228 <__bad_interrupt>
      c6:	00 00       	nop
      c8:	af c0       	rjmp	.+350    	; 0x228 <__bad_interrupt>
      ca:	00 00       	nop
      cc:	ad c0       	rjmp	.+346    	; 0x228 <__bad_interrupt>
      ce:	00 00       	nop
      d0:	ab c0       	rjmp	.+342    	; 0x228 <__bad_interrupt>
      d2:	00 00       	nop
      d4:	a9 c0       	rjmp	.+338    	; 0x228 <__bad_interrupt>
      d6:	00 00       	nop
      d8:	a7 c0       	rjmp	.+334    	; 0x228 <__bad_interrupt>
      da:	00 00       	nop
      dc:	a5 c0       	rjmp	.+330    	; 0x228 <__bad_interrupt>
      de:	00 00       	nop
      e0:	a3 c0       	rjmp	.+326    	; 0x228 <__bad_interrupt>
	...

000000e4 <__trampolines_end>:
      e4:	6e 61       	ori	r22, 0x1E	; 30
      e6:	6e 00       	.word	0x006e	; ????

000000e8 <__c.2332>:
      e8:	69 6e 66 00 00 40 7a 10 f3 5a 00 a0 72 4e 18 09     inf..@z..Z..rN..
      f8:	00 10 a5 d4 e8 00 00 e8 76 48 17 00 00 e4 0b 54     ........vH.....T
     108:	02 00 00 ca 9a 3b 00 00 00 e1 f5 05 00 00 80 96     .....;..........
     118:	98 00 00 00 40 42 0f 00 00 00 a0 86 01 00 00 00     ....@B..........
     128:	10 27 00 00 00 00 e8 03 00 00 00 00 64 00 00 00     .'..........d...
     138:	00 00 0a 00 00 00 00 00 01 00 00 00 00 00 2c 76     ..............,v
     148:	d8 88 dc 67 4f 08 23 df c1 df ae 59 e1 b1 b7 96     ...gO.#....Y....
     158:	e5 e3 e4 53 c6 3a e6 51 99 76 96 e8 e6 c2 84 26     ...S.:.Q.v.....&
     168:	eb 89 8c 9b 62 ed 40 7c 6f fc ef bc 9c 9f 40 f2     ....b.@|o.....@.
     178:	ba a5 6f a5 f4 90 05 5a 2a f7 5c 93 6b 6c f9 67     ..o....Z*.\.kl.g
     188:	6d c1 1b fc e0 e4 0d 47 fe f5 20 e6 b5 00 d0 ed     m......G.. .....
     198:	90 2e 03 00 94 35 77 05 00 80 84 1e 08 00 00 20     .....5w........ 
     1a8:	4e 0a 00 00 00 c8 0c 33 33 33 33 0f 98 6e 12 83     N......3333..n..
     1b8:	11 41 ef 8d 21 14 89 3b e6 55 16 cf fe e6 db 18     .A..!..;.U......
     1c8:	d1 84 4b 38 1b f7 7c 1d 90 1d a4 bb e4 24 20 32     ..K8..|......$ 2
     1d8:	84 72 5e 22 81 00 c9 f1 24 ec a1 e5 3d 27           .r^"....$...='

000001e6 <__ctors_end>:
     1e6:	11 24       	eor	r1, r1
     1e8:	1f be       	out	0x3f, r1	; 63
     1ea:	cf ef       	ldi	r28, 0xFF	; 255
     1ec:	d1 e2       	ldi	r29, 0x21	; 33
     1ee:	de bf       	out	0x3e, r29	; 62
     1f0:	cd bf       	out	0x3d, r28	; 61
     1f2:	00 e0       	ldi	r16, 0x00	; 0
     1f4:	0c bf       	out	0x3c, r16	; 60

000001f6 <__do_copy_data>:
     1f6:	14 e0       	ldi	r17, 0x04	; 4
     1f8:	a0 e0       	ldi	r26, 0x00	; 0
     1fa:	b2 e0       	ldi	r27, 0x02	; 2
     1fc:	ec ef       	ldi	r30, 0xFC	; 252
     1fe:	f2 e3       	ldi	r31, 0x32	; 50
     200:	00 e0       	ldi	r16, 0x00	; 0
     202:	0b bf       	out	0x3b, r16	; 59
     204:	02 c0       	rjmp	.+4      	; 0x20a <__do_copy_data+0x14>
     206:	07 90       	elpm	r0, Z+
     208:	0d 92       	st	X+, r0
     20a:	a4 31       	cpi	r26, 0x14	; 20
     20c:	b1 07       	cpc	r27, r17
     20e:	d9 f7       	brne	.-10     	; 0x206 <__do_copy_data+0x10>

00000210 <__do_clear_bss>:
     210:	26 e0       	ldi	r18, 0x06	; 6
     212:	a4 e1       	ldi	r26, 0x14	; 20
     214:	b4 e0       	ldi	r27, 0x04	; 4
     216:	01 c0       	rjmp	.+2      	; 0x21a <.do_clear_bss_start>

00000218 <.do_clear_bss_loop>:
     218:	1d 92       	st	X+, r1

0000021a <.do_clear_bss_start>:
     21a:	ae 35       	cpi	r26, 0x5E	; 94
     21c:	b2 07       	cpc	r27, r18
     21e:	e1 f7       	brne	.-8      	; 0x218 <.do_clear_bss_loop>
     220:	0e 94 24 09 	call	0x1248	; 0x1248 <main>
     224:	0c 94 7c 19 	jmp	0x32f8	; 0x32f8 <_exit>

00000228 <__bad_interrupt>:
     228:	eb ce       	rjmp	.-554    	; 0x0 <__vectors>

0000022a <_Z12Start_timer0v>:
/************************* Nu utilizez, voi folosi UART_hardware receptie prin intrerupere *************************/
unsigned char USART_receive_hardware(void)
{
	while(!(UCSR0A & (1<<RXC0)));
	return UDR0;
}
     22a:	cf 93       	push	r28
     22c:	df 93       	push	r29
     22e:	cd b7       	in	r28, 0x3d	; 61
     230:	de b7       	in	r29, 0x3e	; 62
     232:	85 e4       	ldi	r24, 0x45	; 69
     234:	90 e0       	ldi	r25, 0x00	; 0
     236:	25 e0       	ldi	r18, 0x05	; 5
     238:	fc 01       	movw	r30, r24
     23a:	20 83       	st	Z, r18
     23c:	86 e4       	ldi	r24, 0x46	; 70
     23e:	90 e0       	ldi	r25, 0x00	; 0
     240:	fc 01       	movw	r30, r24
     242:	10 82       	st	Z, r1
     244:	8e e6       	ldi	r24, 0x6E	; 110
     246:	90 e0       	ldi	r25, 0x00	; 0
     248:	21 e0       	ldi	r18, 0x01	; 1
     24a:	fc 01       	movw	r30, r24
     24c:	20 83       	st	Z, r18
     24e:	00 00       	nop
     250:	df 91       	pop	r29
     252:	cf 91       	pop	r28
     254:	08 95       	ret

00000256 <_Z11Stop_timer0v>:
     256:	cf 93       	push	r28
     258:	df 93       	push	r29
     25a:	cd b7       	in	r28, 0x3d	; 61
     25c:	de b7       	in	r29, 0x3e	; 62
     25e:	85 e4       	ldi	r24, 0x45	; 69
     260:	90 e0       	ldi	r25, 0x00	; 0
     262:	fc 01       	movw	r30, r24
     264:	10 82       	st	Z, r1
     266:	00 00       	nop
     268:	df 91       	pop	r29
     26a:	cf 91       	pop	r28
     26c:	08 95       	ret

0000026e <_Z10Off_timer1v>:
     26e:	cf 93       	push	r28
     270:	df 93       	push	r29
     272:	cd b7       	in	r28, 0x3d	; 61
     274:	de b7       	in	r29, 0x3e	; 62
     276:	80 e8       	ldi	r24, 0x80	; 128
     278:	90 e0       	ldi	r25, 0x00	; 0
     27a:	fc 01       	movw	r30, r24
     27c:	10 82       	st	Z, r1
     27e:	81 e8       	ldi	r24, 0x81	; 129
     280:	90 e0       	ldi	r25, 0x00	; 0
     282:	fc 01       	movw	r30, r24
     284:	10 82       	st	Z, r1
     286:	85 e8       	ldi	r24, 0x85	; 133
     288:	90 e0       	ldi	r25, 0x00	; 0
     28a:	fc 01       	movw	r30, r24
     28c:	10 82       	st	Z, r1
     28e:	84 e8       	ldi	r24, 0x84	; 132
     290:	90 e0       	ldi	r25, 0x00	; 0
     292:	fc 01       	movw	r30, r24
     294:	10 82       	st	Z, r1
     296:	87 e8       	ldi	r24, 0x87	; 135
     298:	90 e0       	ldi	r25, 0x00	; 0
     29a:	fc 01       	movw	r30, r24
     29c:	10 82       	st	Z, r1
     29e:	86 e8       	ldi	r24, 0x86	; 134
     2a0:	90 e0       	ldi	r25, 0x00	; 0
     2a2:	fc 01       	movw	r30, r24
     2a4:	10 82       	st	Z, r1
     2a6:	89 e8       	ldi	r24, 0x89	; 137
     2a8:	90 e0       	ldi	r25, 0x00	; 0
     2aa:	fc 01       	movw	r30, r24
     2ac:	10 82       	st	Z, r1
     2ae:	88 e8       	ldi	r24, 0x88	; 136
     2b0:	90 e0       	ldi	r25, 0x00	; 0
     2b2:	fc 01       	movw	r30, r24
     2b4:	10 82       	st	Z, r1
     2b6:	8b e8       	ldi	r24, 0x8B	; 139
     2b8:	90 e0       	ldi	r25, 0x00	; 0
     2ba:	fc 01       	movw	r30, r24
     2bc:	10 82       	st	Z, r1
     2be:	8a e8       	ldi	r24, 0x8A	; 138
     2c0:	90 e0       	ldi	r25, 0x00	; 0
     2c2:	fc 01       	movw	r30, r24
     2c4:	10 82       	st	Z, r1
     2c6:	8d e8       	ldi	r24, 0x8D	; 141
     2c8:	90 e0       	ldi	r25, 0x00	; 0
     2ca:	fc 01       	movw	r30, r24
     2cc:	10 82       	st	Z, r1
     2ce:	8c e8       	ldi	r24, 0x8C	; 140
     2d0:	90 e0       	ldi	r25, 0x00	; 0
     2d2:	fc 01       	movw	r30, r24
     2d4:	10 82       	st	Z, r1
     2d6:	8f e6       	ldi	r24, 0x6F	; 111
     2d8:	90 e0       	ldi	r25, 0x00	; 0
     2da:	22 e0       	ldi	r18, 0x02	; 2
     2dc:	fc 01       	movw	r30, r24
     2de:	20 83       	st	Z, r18
     2e0:	00 00       	nop
     2e2:	df 91       	pop	r29
     2e4:	cf 91       	pop	r28
     2e6:	08 95       	ret

000002e8 <_Z10Set_timer1v>:
     2e8:	cf 93       	push	r28
     2ea:	df 93       	push	r29
     2ec:	cd b7       	in	r28, 0x3d	; 61
     2ee:	de b7       	in	r29, 0x3e	; 62
     2f0:	80 e8       	ldi	r24, 0x80	; 128
     2f2:	90 e0       	ldi	r25, 0x00	; 0
     2f4:	fc 01       	movw	r30, r24
     2f6:	10 82       	st	Z, r1
     2f8:	81 e8       	ldi	r24, 0x81	; 129
     2fa:	90 e0       	ldi	r25, 0x00	; 0
     2fc:	22 e0       	ldi	r18, 0x02	; 2
     2fe:	fc 01       	movw	r30, r24
     300:	20 83       	st	Z, r18
     302:	85 e8       	ldi	r24, 0x85	; 133
     304:	90 e0       	ldi	r25, 0x00	; 0
     306:	fc 01       	movw	r30, r24
     308:	10 82       	st	Z, r1
     30a:	84 e8       	ldi	r24, 0x84	; 132
     30c:	90 e0       	ldi	r25, 0x00	; 0
     30e:	fc 01       	movw	r30, r24
     310:	10 82       	st	Z, r1
     312:	87 e8       	ldi	r24, 0x87	; 135
     314:	90 e0       	ldi	r25, 0x00	; 0
     316:	fc 01       	movw	r30, r24
     318:	10 82       	st	Z, r1
     31a:	86 e8       	ldi	r24, 0x86	; 134
     31c:	90 e0       	ldi	r25, 0x00	; 0
     31e:	fc 01       	movw	r30, r24
     320:	10 82       	st	Z, r1
     322:	8b e8       	ldi	r24, 0x8B	; 139
     324:	90 e0       	ldi	r25, 0x00	; 0
     326:	fc 01       	movw	r30, r24
     328:	10 82       	st	Z, r1
     32a:	8a e8       	ldi	r24, 0x8A	; 138
     32c:	90 e0       	ldi	r25, 0x00	; 0
     32e:	fc 01       	movw	r30, r24
     330:	10 82       	st	Z, r1
     332:	8d e8       	ldi	r24, 0x8D	; 141
     334:	90 e0       	ldi	r25, 0x00	; 0
     336:	fc 01       	movw	r30, r24
     338:	10 82       	st	Z, r1
     33a:	8c e8       	ldi	r24, 0x8C	; 140
     33c:	90 e0       	ldi	r25, 0x00	; 0
     33e:	fc 01       	movw	r30, r24
     340:	10 82       	st	Z, r1
     342:	8f e6       	ldi	r24, 0x6F	; 111
     344:	90 e0       	ldi	r25, 0x00	; 0
     346:	22 e0       	ldi	r18, 0x02	; 2
     348:	fc 01       	movw	r30, r24
     34a:	20 83       	st	Z, r18
     34c:	00 00       	nop
     34e:	df 91       	pop	r29
     350:	cf 91       	pop	r28
     352:	08 95       	ret

00000354 <_Z10Off_timer3v>:
     354:	cf 93       	push	r28
     356:	df 93       	push	r29
     358:	cd b7       	in	r28, 0x3d	; 61
     35a:	de b7       	in	r29, 0x3e	; 62
     35c:	80 e9       	ldi	r24, 0x90	; 144
     35e:	90 e0       	ldi	r25, 0x00	; 0
     360:	fc 01       	movw	r30, r24
     362:	10 82       	st	Z, r1
     364:	81 e9       	ldi	r24, 0x91	; 145
     366:	90 e0       	ldi	r25, 0x00	; 0
     368:	fc 01       	movw	r30, r24
     36a:	10 82       	st	Z, r1
     36c:	85 e9       	ldi	r24, 0x95	; 149
     36e:	90 e0       	ldi	r25, 0x00	; 0
     370:	fc 01       	movw	r30, r24
     372:	10 82       	st	Z, r1
     374:	84 e9       	ldi	r24, 0x94	; 148
     376:	90 e0       	ldi	r25, 0x00	; 0
     378:	fc 01       	movw	r30, r24
     37a:	10 82       	st	Z, r1
     37c:	87 e9       	ldi	r24, 0x97	; 151
     37e:	90 e0       	ldi	r25, 0x00	; 0
     380:	fc 01       	movw	r30, r24
     382:	10 82       	st	Z, r1
     384:	86 e9       	ldi	r24, 0x96	; 150
     386:	90 e0       	ldi	r25, 0x00	; 0
     388:	fc 01       	movw	r30, r24
     38a:	10 82       	st	Z, r1
     38c:	89 e9       	ldi	r24, 0x99	; 153
     38e:	90 e0       	ldi	r25, 0x00	; 0
     390:	fc 01       	movw	r30, r24
     392:	10 82       	st	Z, r1
     394:	88 e9       	ldi	r24, 0x98	; 152
     396:	90 e0       	ldi	r25, 0x00	; 0
     398:	fc 01       	movw	r30, r24
     39a:	10 82       	st	Z, r1
     39c:	8b e9       	ldi	r24, 0x9B	; 155
     39e:	90 e0       	ldi	r25, 0x00	; 0
     3a0:	fc 01       	movw	r30, r24
     3a2:	10 82       	st	Z, r1
     3a4:	8a e9       	ldi	r24, 0x9A	; 154
     3a6:	90 e0       	ldi	r25, 0x00	; 0
     3a8:	fc 01       	movw	r30, r24
     3aa:	10 82       	st	Z, r1
     3ac:	8d e9       	ldi	r24, 0x9D	; 157
     3ae:	90 e0       	ldi	r25, 0x00	; 0
     3b0:	fc 01       	movw	r30, r24
     3b2:	10 82       	st	Z, r1
     3b4:	8c e9       	ldi	r24, 0x9C	; 156
     3b6:	90 e0       	ldi	r25, 0x00	; 0
     3b8:	fc 01       	movw	r30, r24
     3ba:	10 82       	st	Z, r1
     3bc:	81 e7       	ldi	r24, 0x71	; 113
     3be:	90 e0       	ldi	r25, 0x00	; 0
     3c0:	22 e0       	ldi	r18, 0x02	; 2
     3c2:	fc 01       	movw	r30, r24
     3c4:	20 83       	st	Z, r18
     3c6:	00 00       	nop
     3c8:	df 91       	pop	r29
     3ca:	cf 91       	pop	r28
     3cc:	08 95       	ret

000003ce <_Z10Set_timer3v>:
     3ce:	cf 93       	push	r28
     3d0:	df 93       	push	r29
     3d2:	cd b7       	in	r28, 0x3d	; 61
     3d4:	de b7       	in	r29, 0x3e	; 62
     3d6:	80 e9       	ldi	r24, 0x90	; 144
     3d8:	90 e0       	ldi	r25, 0x00	; 0
     3da:	fc 01       	movw	r30, r24
     3dc:	10 82       	st	Z, r1
     3de:	81 e9       	ldi	r24, 0x91	; 145
     3e0:	90 e0       	ldi	r25, 0x00	; 0
     3e2:	22 e0       	ldi	r18, 0x02	; 2
     3e4:	fc 01       	movw	r30, r24
     3e6:	20 83       	st	Z, r18
     3e8:	85 e9       	ldi	r24, 0x95	; 149
     3ea:	90 e0       	ldi	r25, 0x00	; 0
     3ec:	fc 01       	movw	r30, r24
     3ee:	10 82       	st	Z, r1
     3f0:	84 e9       	ldi	r24, 0x94	; 148
     3f2:	90 e0       	ldi	r25, 0x00	; 0
     3f4:	fc 01       	movw	r30, r24
     3f6:	10 82       	st	Z, r1
     3f8:	87 e9       	ldi	r24, 0x97	; 151
     3fa:	90 e0       	ldi	r25, 0x00	; 0
     3fc:	fc 01       	movw	r30, r24
     3fe:	10 82       	st	Z, r1
     400:	86 e9       	ldi	r24, 0x96	; 150
     402:	90 e0       	ldi	r25, 0x00	; 0
     404:	fc 01       	movw	r30, r24
     406:	10 82       	st	Z, r1
     408:	8b e9       	ldi	r24, 0x9B	; 155
     40a:	90 e0       	ldi	r25, 0x00	; 0
     40c:	fc 01       	movw	r30, r24
     40e:	10 82       	st	Z, r1
     410:	8a e9       	ldi	r24, 0x9A	; 154
     412:	90 e0       	ldi	r25, 0x00	; 0
     414:	fc 01       	movw	r30, r24
     416:	10 82       	st	Z, r1
     418:	8d e9       	ldi	r24, 0x9D	; 157
     41a:	90 e0       	ldi	r25, 0x00	; 0
     41c:	fc 01       	movw	r30, r24
     41e:	10 82       	st	Z, r1
     420:	8c e9       	ldi	r24, 0x9C	; 156
     422:	90 e0       	ldi	r25, 0x00	; 0
     424:	fc 01       	movw	r30, r24
     426:	10 82       	st	Z, r1
     428:	81 e7       	ldi	r24, 0x71	; 113
     42a:	90 e0       	ldi	r25, 0x00	; 0
     42c:	22 e0       	ldi	r18, 0x02	; 2
     42e:	fc 01       	movw	r30, r24
     430:	20 83       	st	Z, r18
     432:	00 00       	nop
     434:	df 91       	pop	r29
     436:	cf 91       	pop	r28
     438:	08 95       	ret

0000043a <_Z15Stepper_setup_Xm>:
     43a:	cf 93       	push	r28
     43c:	df 93       	push	r29
     43e:	00 d0       	rcall	.+0      	; 0x440 <_Z15Stepper_setup_Xm+0x6>
     440:	1f 92       	push	r1
     442:	cd b7       	in	r28, 0x3d	; 61
     444:	de b7       	in	r29, 0x3e	; 62
     446:	69 83       	std	Y+1, r22	; 0x01
     448:	7a 83       	std	Y+2, r23	; 0x02
     44a:	8b 83       	std	Y+3, r24	; 0x03
     44c:	9c 83       	std	Y+4, r25	; 0x04
     44e:	89 81       	ldd	r24, Y+1	; 0x01
     450:	9a 81       	ldd	r25, Y+2	; 0x02
     452:	ab 81       	ldd	r26, Y+3	; 0x03
     454:	bc 81       	ldd	r27, Y+4	; 0x04
     456:	9c 01       	movw	r18, r24
     458:	ad 01       	movw	r20, r26
     45a:	22 0f       	add	r18, r18
     45c:	33 1f       	adc	r19, r19
     45e:	44 1f       	adc	r20, r20
     460:	55 1f       	adc	r21, r21
     462:	80 e8       	ldi	r24, 0x80	; 128
     464:	94 e8       	ldi	r25, 0x84	; 132
     466:	ae e1       	ldi	r26, 0x1E	; 30
     468:	b0 e0       	ldi	r27, 0x00	; 0
     46a:	bc 01       	movw	r22, r24
     46c:	cd 01       	movw	r24, r26
     46e:	0e 94 9c 17 	call	0x2f38	; 0x2f38 <__udivmodsi4>
     472:	da 01       	movw	r26, r20
     474:	c9 01       	movw	r24, r18
     476:	80 93 20 06 	sts	0x0620, r24	; 0x800620 <Valoarea_de_numarareX>
     47a:	90 93 21 06 	sts	0x0621, r25	; 0x800621 <Valoarea_de_numarareX+0x1>
     47e:	a0 93 22 06 	sts	0x0622, r26	; 0x800622 <Valoarea_de_numarareX+0x2>
     482:	b0 93 23 06 	sts	0x0623, r27	; 0x800623 <Valoarea_de_numarareX+0x3>
     486:	80 91 20 06 	lds	r24, 0x0620	; 0x800620 <Valoarea_de_numarareX>
     48a:	90 91 21 06 	lds	r25, 0x0621	; 0x800621 <Valoarea_de_numarareX+0x1>
     48e:	a0 91 22 06 	lds	r26, 0x0622	; 0x800622 <Valoarea_de_numarareX+0x2>
     492:	b0 91 23 06 	lds	r27, 0x0623	; 0x800623 <Valoarea_de_numarareX+0x3>
     496:	11 97       	sbiw	r26, 0x01	; 1
     498:	18 16       	cp	r1, r24
     49a:	19 06       	cpc	r1, r25
     49c:	1a 06       	cpc	r1, r26
     49e:	1b 06       	cpc	r1, r27
     4a0:	bc f4       	brge	.+46     	; 0x4d0 <_Z15Stepper_setup_Xm+0x96>
     4a2:	80 91 1c 06 	lds	r24, 0x061C	; 0x80061c <Overflow_timer11>
     4a6:	8f 5f       	subi	r24, 0xFF	; 255
     4a8:	80 93 1c 06 	sts	0x061C, r24	; 0x80061c <Overflow_timer11>
     4ac:	80 91 20 06 	lds	r24, 0x0620	; 0x800620 <Valoarea_de_numarareX>
     4b0:	90 91 21 06 	lds	r25, 0x0621	; 0x800621 <Valoarea_de_numarareX+0x1>
     4b4:	a0 91 22 06 	lds	r26, 0x0622	; 0x800622 <Valoarea_de_numarareX+0x2>
     4b8:	b0 91 23 06 	lds	r27, 0x0623	; 0x800623 <Valoarea_de_numarareX+0x3>
     4bc:	11 97       	sbiw	r26, 0x01	; 1
     4be:	80 93 20 06 	sts	0x0620, r24	; 0x800620 <Valoarea_de_numarareX>
     4c2:	90 93 21 06 	sts	0x0621, r25	; 0x800621 <Valoarea_de_numarareX+0x1>
     4c6:	a0 93 22 06 	sts	0x0622, r26	; 0x800622 <Valoarea_de_numarareX+0x2>
     4ca:	b0 93 23 06 	sts	0x0623, r27	; 0x800623 <Valoarea_de_numarareX+0x3>
     4ce:	db cf       	rjmp	.-74     	; 0x486 <_Z15Stepper_setup_Xm+0x4c>
     4d0:	90 91 1c 06 	lds	r25, 0x061C	; 0x80061c <Overflow_timer11>
     4d4:	81 e0       	ldi	r24, 0x01	; 1
     4d6:	99 23       	and	r25, r25
     4d8:	09 f0       	breq	.+2      	; 0x4dc <_Z15Stepper_setup_Xm+0xa2>
     4da:	80 e0       	ldi	r24, 0x00	; 0
     4dc:	88 23       	and	r24, r24
     4de:	71 f0       	breq	.+28     	; 0x4fc <_Z15Stepper_setup_Xm+0xc2>
     4e0:	28 e8       	ldi	r18, 0x88	; 136
     4e2:	30 e0       	ldi	r19, 0x00	; 0
     4e4:	80 91 20 06 	lds	r24, 0x0620	; 0x800620 <Valoarea_de_numarareX>
     4e8:	90 91 21 06 	lds	r25, 0x0621	; 0x800621 <Valoarea_de_numarareX+0x1>
     4ec:	a0 91 22 06 	lds	r26, 0x0622	; 0x800622 <Valoarea_de_numarareX+0x2>
     4f0:	b0 91 23 06 	lds	r27, 0x0623	; 0x800623 <Valoarea_de_numarareX+0x3>
     4f4:	f9 01       	movw	r30, r18
     4f6:	91 83       	std	Z+1, r25	; 0x01
     4f8:	80 83       	st	Z, r24
     4fa:	07 c0       	rjmp	.+14     	; 0x50a <_Z15Stepper_setup_Xm+0xd0>
     4fc:	88 e8       	ldi	r24, 0x88	; 136
     4fe:	90 e0       	ldi	r25, 0x00	; 0
     500:	2f ef       	ldi	r18, 0xFF	; 255
     502:	3f ef       	ldi	r19, 0xFF	; 255
     504:	fc 01       	movw	r30, r24
     506:	31 83       	std	Z+1, r19	; 0x01
     508:	20 83       	st	Z, r18
     50a:	80 91 1c 06 	lds	r24, 0x061C	; 0x80061c <Overflow_timer11>
     50e:	80 93 1d 06 	sts	0x061D, r24	; 0x80061d <Overflow_timer12>
     512:	ea de       	rcall	.-556    	; 0x2e8 <_Z10Set_timer1v>
     514:	00 00       	nop
     516:	0f 90       	pop	r0
     518:	0f 90       	pop	r0
     51a:	0f 90       	pop	r0
     51c:	0f 90       	pop	r0
     51e:	df 91       	pop	r29
     520:	cf 91       	pop	r28
     522:	08 95       	ret

00000524 <_Z15Stepper_setup_Ym>:
     524:	cf 93       	push	r28
     526:	df 93       	push	r29
     528:	00 d0       	rcall	.+0      	; 0x52a <_Z15Stepper_setup_Ym+0x6>
     52a:	1f 92       	push	r1
     52c:	cd b7       	in	r28, 0x3d	; 61
     52e:	de b7       	in	r29, 0x3e	; 62
     530:	69 83       	std	Y+1, r22	; 0x01
     532:	7a 83       	std	Y+2, r23	; 0x02
     534:	8b 83       	std	Y+3, r24	; 0x03
     536:	9c 83       	std	Y+4, r25	; 0x04
     538:	89 81       	ldd	r24, Y+1	; 0x01
     53a:	9a 81       	ldd	r25, Y+2	; 0x02
     53c:	ab 81       	ldd	r26, Y+3	; 0x03
     53e:	bc 81       	ldd	r27, Y+4	; 0x04
     540:	9c 01       	movw	r18, r24
     542:	ad 01       	movw	r20, r26
     544:	22 0f       	add	r18, r18
     546:	33 1f       	adc	r19, r19
     548:	44 1f       	adc	r20, r20
     54a:	55 1f       	adc	r21, r21
     54c:	80 e8       	ldi	r24, 0x80	; 128
     54e:	94 e8       	ldi	r25, 0x84	; 132
     550:	ae e1       	ldi	r26, 0x1E	; 30
     552:	b0 e0       	ldi	r27, 0x00	; 0
     554:	bc 01       	movw	r22, r24
     556:	cd 01       	movw	r24, r26
     558:	0e 94 9c 17 	call	0x2f38	; 0x2f38 <__udivmodsi4>
     55c:	da 01       	movw	r26, r20
     55e:	c9 01       	movw	r24, r18
     560:	80 93 24 06 	sts	0x0624, r24	; 0x800624 <Valoarea_de_numarareY>
     564:	90 93 25 06 	sts	0x0625, r25	; 0x800625 <Valoarea_de_numarareY+0x1>
     568:	a0 93 26 06 	sts	0x0626, r26	; 0x800626 <Valoarea_de_numarareY+0x2>
     56c:	b0 93 27 06 	sts	0x0627, r27	; 0x800627 <Valoarea_de_numarareY+0x3>
     570:	80 91 24 06 	lds	r24, 0x0624	; 0x800624 <Valoarea_de_numarareY>
     574:	90 91 25 06 	lds	r25, 0x0625	; 0x800625 <Valoarea_de_numarareY+0x1>
     578:	a0 91 26 06 	lds	r26, 0x0626	; 0x800626 <Valoarea_de_numarareY+0x2>
     57c:	b0 91 27 06 	lds	r27, 0x0627	; 0x800627 <Valoarea_de_numarareY+0x3>
     580:	11 97       	sbiw	r26, 0x01	; 1
     582:	18 16       	cp	r1, r24
     584:	19 06       	cpc	r1, r25
     586:	1a 06       	cpc	r1, r26
     588:	1b 06       	cpc	r1, r27
     58a:	bc f4       	brge	.+46     	; 0x5ba <_Z15Stepper_setup_Ym+0x96>
     58c:	80 91 1e 06 	lds	r24, 0x061E	; 0x80061e <Overflow_timer31>
     590:	8f 5f       	subi	r24, 0xFF	; 255
     592:	80 93 1e 06 	sts	0x061E, r24	; 0x80061e <Overflow_timer31>
     596:	80 91 24 06 	lds	r24, 0x0624	; 0x800624 <Valoarea_de_numarareY>
     59a:	90 91 25 06 	lds	r25, 0x0625	; 0x800625 <Valoarea_de_numarareY+0x1>
     59e:	a0 91 26 06 	lds	r26, 0x0626	; 0x800626 <Valoarea_de_numarareY+0x2>
     5a2:	b0 91 27 06 	lds	r27, 0x0627	; 0x800627 <Valoarea_de_numarareY+0x3>
     5a6:	11 97       	sbiw	r26, 0x01	; 1
     5a8:	80 93 24 06 	sts	0x0624, r24	; 0x800624 <Valoarea_de_numarareY>
     5ac:	90 93 25 06 	sts	0x0625, r25	; 0x800625 <Valoarea_de_numarareY+0x1>
     5b0:	a0 93 26 06 	sts	0x0626, r26	; 0x800626 <Valoarea_de_numarareY+0x2>
     5b4:	b0 93 27 06 	sts	0x0627, r27	; 0x800627 <Valoarea_de_numarareY+0x3>
     5b8:	db cf       	rjmp	.-74     	; 0x570 <_Z15Stepper_setup_Ym+0x4c>
     5ba:	90 91 1e 06 	lds	r25, 0x061E	; 0x80061e <Overflow_timer31>
     5be:	81 e0       	ldi	r24, 0x01	; 1
     5c0:	99 23       	and	r25, r25
     5c2:	09 f0       	breq	.+2      	; 0x5c6 <_Z15Stepper_setup_Ym+0xa2>
     5c4:	80 e0       	ldi	r24, 0x00	; 0
     5c6:	88 23       	and	r24, r24
     5c8:	71 f0       	breq	.+28     	; 0x5e6 <_Z15Stepper_setup_Ym+0xc2>
     5ca:	28 e9       	ldi	r18, 0x98	; 152
     5cc:	30 e0       	ldi	r19, 0x00	; 0
     5ce:	80 91 24 06 	lds	r24, 0x0624	; 0x800624 <Valoarea_de_numarareY>
     5d2:	90 91 25 06 	lds	r25, 0x0625	; 0x800625 <Valoarea_de_numarareY+0x1>
     5d6:	a0 91 26 06 	lds	r26, 0x0626	; 0x800626 <Valoarea_de_numarareY+0x2>
     5da:	b0 91 27 06 	lds	r27, 0x0627	; 0x800627 <Valoarea_de_numarareY+0x3>
     5de:	f9 01       	movw	r30, r18
     5e0:	91 83       	std	Z+1, r25	; 0x01
     5e2:	80 83       	st	Z, r24
     5e4:	07 c0       	rjmp	.+14     	; 0x5f4 <_Z15Stepper_setup_Ym+0xd0>
     5e6:	88 e9       	ldi	r24, 0x98	; 152
     5e8:	90 e0       	ldi	r25, 0x00	; 0
     5ea:	2f ef       	ldi	r18, 0xFF	; 255
     5ec:	3f ef       	ldi	r19, 0xFF	; 255
     5ee:	fc 01       	movw	r30, r24
     5f0:	31 83       	std	Z+1, r19	; 0x01
     5f2:	20 83       	st	Z, r18
     5f4:	80 91 1e 06 	lds	r24, 0x061E	; 0x80061e <Overflow_timer31>
     5f8:	80 93 1f 06 	sts	0x061F, r24	; 0x80061f <Overflow_timer32>
     5fc:	e8 de       	rcall	.-560    	; 0x3ce <_Z10Set_timer3v>
     5fe:	00 00       	nop
     600:	0f 90       	pop	r0
     602:	0f 90       	pop	r0
     604:	0f 90       	pop	r0
     606:	0f 90       	pop	r0
     608:	df 91       	pop	r29
     60a:	cf 91       	pop	r28
     60c:	08 95       	ret

0000060e <_Z14Enable_stepperh>:
     60e:	cf 93       	push	r28
     610:	df 93       	push	r29
     612:	1f 92       	push	r1
     614:	cd b7       	in	r28, 0x3d	; 61
     616:	de b7       	in	r29, 0x3e	; 62
     618:	89 83       	std	Y+1, r24	; 0x01
     61a:	89 81       	ldd	r24, Y+1	; 0x01
     61c:	87 30       	cpi	r24, 0x07	; 7
     61e:	b1 f4       	brne	.+44     	; 0x64c <_Z14Enable_stepperh+0x3e>
     620:	8b e2       	ldi	r24, 0x2B	; 43
     622:	90 e0       	ldi	r25, 0x00	; 0
     624:	2b e2       	ldi	r18, 0x2B	; 43
     626:	30 e0       	ldi	r19, 0x00	; 0
     628:	f9 01       	movw	r30, r18
     62a:	20 81       	ld	r18, Z
     62c:	62 2f       	mov	r22, r18
     62e:	29 81       	ldd	r18, Y+1	; 0x01
     630:	42 2f       	mov	r20, r18
     632:	50 e0       	ldi	r21, 0x00	; 0
     634:	21 e0       	ldi	r18, 0x01	; 1
     636:	30 e0       	ldi	r19, 0x00	; 0
     638:	02 c0       	rjmp	.+4      	; 0x63e <_Z14Enable_stepperh+0x30>
     63a:	22 0f       	add	r18, r18
     63c:	33 1f       	adc	r19, r19
     63e:	4a 95       	dec	r20
     640:	e2 f7       	brpl	.-8      	; 0x63a <_Z14Enable_stepperh+0x2c>
     642:	20 95       	com	r18
     644:	26 23       	and	r18, r22
     646:	fc 01       	movw	r30, r24
     648:	20 83       	st	Z, r18
     64a:	15 c0       	rjmp	.+42     	; 0x676 <_Z14Enable_stepperh+0x68>
     64c:	81 e3       	ldi	r24, 0x31	; 49
     64e:	90 e0       	ldi	r25, 0x00	; 0
     650:	21 e3       	ldi	r18, 0x31	; 49
     652:	30 e0       	ldi	r19, 0x00	; 0
     654:	f9 01       	movw	r30, r18
     656:	20 81       	ld	r18, Z
     658:	62 2f       	mov	r22, r18
     65a:	29 81       	ldd	r18, Y+1	; 0x01
     65c:	42 2f       	mov	r20, r18
     65e:	50 e0       	ldi	r21, 0x00	; 0
     660:	21 e0       	ldi	r18, 0x01	; 1
     662:	30 e0       	ldi	r19, 0x00	; 0
     664:	02 c0       	rjmp	.+4      	; 0x66a <_Z14Enable_stepperh+0x5c>
     666:	22 0f       	add	r18, r18
     668:	33 1f       	adc	r19, r19
     66a:	4a 95       	dec	r20
     66c:	e2 f7       	brpl	.-8      	; 0x666 <_Z14Enable_stepperh+0x58>
     66e:	20 95       	com	r18
     670:	26 23       	and	r18, r22
     672:	fc 01       	movw	r30, r24
     674:	20 83       	st	Z, r18
     676:	00 00       	nop
     678:	0f 90       	pop	r0
     67a:	df 91       	pop	r29
     67c:	cf 91       	pop	r28
     67e:	08 95       	ret

00000680 <_Z15Disable_stepperh>:
     680:	cf 93       	push	r28
     682:	df 93       	push	r29
     684:	1f 92       	push	r1
     686:	cd b7       	in	r28, 0x3d	; 61
     688:	de b7       	in	r29, 0x3e	; 62
     68a:	89 83       	std	Y+1, r24	; 0x01
     68c:	89 81       	ldd	r24, Y+1	; 0x01
     68e:	87 30       	cpi	r24, 0x07	; 7
     690:	a9 f4       	brne	.+42     	; 0x6bc <_Z15Disable_stepperh+0x3c>
     692:	8b e2       	ldi	r24, 0x2B	; 43
     694:	90 e0       	ldi	r25, 0x00	; 0
     696:	2b e2       	ldi	r18, 0x2B	; 43
     698:	30 e0       	ldi	r19, 0x00	; 0
     69a:	f9 01       	movw	r30, r18
     69c:	20 81       	ld	r18, Z
     69e:	62 2f       	mov	r22, r18
     6a0:	29 81       	ldd	r18, Y+1	; 0x01
     6a2:	42 2f       	mov	r20, r18
     6a4:	50 e0       	ldi	r21, 0x00	; 0
     6a6:	21 e0       	ldi	r18, 0x01	; 1
     6a8:	30 e0       	ldi	r19, 0x00	; 0
     6aa:	02 c0       	rjmp	.+4      	; 0x6b0 <_Z15Disable_stepperh+0x30>
     6ac:	22 0f       	add	r18, r18
     6ae:	33 1f       	adc	r19, r19
     6b0:	4a 95       	dec	r20
     6b2:	e2 f7       	brpl	.-8      	; 0x6ac <_Z15Disable_stepperh+0x2c>
     6b4:	26 2b       	or	r18, r22
     6b6:	fc 01       	movw	r30, r24
     6b8:	20 83       	st	Z, r18
     6ba:	14 c0       	rjmp	.+40     	; 0x6e4 <_Z15Disable_stepperh+0x64>
     6bc:	81 e3       	ldi	r24, 0x31	; 49
     6be:	90 e0       	ldi	r25, 0x00	; 0
     6c0:	21 e3       	ldi	r18, 0x31	; 49
     6c2:	30 e0       	ldi	r19, 0x00	; 0
     6c4:	f9 01       	movw	r30, r18
     6c6:	20 81       	ld	r18, Z
     6c8:	62 2f       	mov	r22, r18
     6ca:	29 81       	ldd	r18, Y+1	; 0x01
     6cc:	42 2f       	mov	r20, r18
     6ce:	50 e0       	ldi	r21, 0x00	; 0
     6d0:	21 e0       	ldi	r18, 0x01	; 1
     6d2:	30 e0       	ldi	r19, 0x00	; 0
     6d4:	02 c0       	rjmp	.+4      	; 0x6da <_Z15Disable_stepperh+0x5a>
     6d6:	22 0f       	add	r18, r18
     6d8:	33 1f       	adc	r19, r19
     6da:	4a 95       	dec	r20
     6dc:	e2 f7       	brpl	.-8      	; 0x6d6 <_Z15Disable_stepperh+0x56>
     6de:	26 2b       	or	r18, r22
     6e0:	fc 01       	movw	r30, r24
     6e2:	20 83       	st	Z, r18
     6e4:	00 00       	nop
     6e6:	0f 90       	pop	r0
     6e8:	df 91       	pop	r29
     6ea:	cf 91       	pop	r28
     6ec:	08 95       	ret

000006ee <_Z14Setdir_stepperhh>:
     6ee:	cf 93       	push	r28
     6f0:	df 93       	push	r29
     6f2:	1f 92       	push	r1
     6f4:	1f 92       	push	r1
     6f6:	cd b7       	in	r28, 0x3d	; 61
     6f8:	de b7       	in	r29, 0x3e	; 62
     6fa:	89 83       	std	Y+1, r24	; 0x01
     6fc:	6a 83       	std	Y+2, r22	; 0x02
     6fe:	8a 81       	ldd	r24, Y+2	; 0x02
     700:	88 23       	and	r24, r24
     702:	a9 f0       	breq	.+42     	; 0x72e <_Z14Setdir_stepperhh+0x40>
     704:	81 e3       	ldi	r24, 0x31	; 49
     706:	90 e0       	ldi	r25, 0x00	; 0
     708:	21 e3       	ldi	r18, 0x31	; 49
     70a:	30 e0       	ldi	r19, 0x00	; 0
     70c:	f9 01       	movw	r30, r18
     70e:	20 81       	ld	r18, Z
     710:	62 2f       	mov	r22, r18
     712:	29 81       	ldd	r18, Y+1	; 0x01
     714:	42 2f       	mov	r20, r18
     716:	50 e0       	ldi	r21, 0x00	; 0
     718:	21 e0       	ldi	r18, 0x01	; 1
     71a:	30 e0       	ldi	r19, 0x00	; 0
     71c:	02 c0       	rjmp	.+4      	; 0x722 <_Z14Setdir_stepperhh+0x34>
     71e:	22 0f       	add	r18, r18
     720:	33 1f       	adc	r19, r19
     722:	4a 95       	dec	r20
     724:	e2 f7       	brpl	.-8      	; 0x71e <_Z14Setdir_stepperhh+0x30>
     726:	26 2b       	or	r18, r22
     728:	fc 01       	movw	r30, r24
     72a:	20 83       	st	Z, r18
     72c:	15 c0       	rjmp	.+42     	; 0x758 <_Z14Setdir_stepperhh+0x6a>
     72e:	81 e3       	ldi	r24, 0x31	; 49
     730:	90 e0       	ldi	r25, 0x00	; 0
     732:	21 e3       	ldi	r18, 0x31	; 49
     734:	30 e0       	ldi	r19, 0x00	; 0
     736:	f9 01       	movw	r30, r18
     738:	20 81       	ld	r18, Z
     73a:	62 2f       	mov	r22, r18
     73c:	29 81       	ldd	r18, Y+1	; 0x01
     73e:	42 2f       	mov	r20, r18
     740:	50 e0       	ldi	r21, 0x00	; 0
     742:	21 e0       	ldi	r18, 0x01	; 1
     744:	30 e0       	ldi	r19, 0x00	; 0
     746:	02 c0       	rjmp	.+4      	; 0x74c <_Z14Setdir_stepperhh+0x5e>
     748:	22 0f       	add	r18, r18
     74a:	33 1f       	adc	r19, r19
     74c:	4a 95       	dec	r20
     74e:	e2 f7       	brpl	.-8      	; 0x748 <_Z14Setdir_stepperhh+0x5a>
     750:	20 95       	com	r18
     752:	26 23       	and	r18, r22
     754:	fc 01       	movw	r30, r24
     756:	20 83       	st	Z, r18
     758:	00 00       	nop
     75a:	0f 90       	pop	r0
     75c:	0f 90       	pop	r0
     75e:	df 91       	pop	r29
     760:	cf 91       	pop	r28
     762:	08 95       	ret

00000764 <_Z8RunSpeedhh>:
     764:	cf 93       	push	r28
     766:	df 93       	push	r29
     768:	1f 92       	push	r1
     76a:	1f 92       	push	r1
     76c:	cd b7       	in	r28, 0x3d	; 61
     76e:	de b7       	in	r29, 0x3e	; 62
     770:	89 83       	std	Y+1, r24	; 0x01
     772:	6a 83       	std	Y+2, r22	; 0x02
     774:	89 81       	ldd	r24, Y+1	; 0x01
     776:	88 23       	and	r24, r24
     778:	21 f4       	brne	.+8      	; 0x782 <_Z8RunSpeedhh+0x1e>
     77a:	6a 81       	ldd	r22, Y+2	; 0x02
     77c:	81 e0       	ldi	r24, 0x01	; 1
     77e:	b7 df       	rcall	.-146    	; 0x6ee <_Z14Setdir_stepperhh>
     780:	03 c0       	rjmp	.+6      	; 0x788 <_Z8RunSpeedhh+0x24>
     782:	6a 81       	ldd	r22, Y+2	; 0x02
     784:	87 e0       	ldi	r24, 0x07	; 7
     786:	b3 df       	rcall	.-154    	; 0x6ee <_Z14Setdir_stepperhh>
     788:	89 81       	ldd	r24, Y+1	; 0x01
     78a:	88 23       	and	r24, r24
     78c:	61 f4       	brne	.+24     	; 0x7a6 <_Z8RunSpeedhh+0x42>
     78e:	80 91 56 06 	lds	r24, 0x0656	; 0x800656 <Steps_X>
     792:	90 91 57 06 	lds	r25, 0x0657	; 0x800657 <Steps_X+0x1>
     796:	a0 91 58 06 	lds	r26, 0x0658	; 0x800658 <Steps_X+0x2>
     79a:	b0 91 59 06 	lds	r27, 0x0659	; 0x800659 <Steps_X+0x3>
     79e:	bc 01       	movw	r22, r24
     7a0:	cd 01       	movw	r24, r26
     7a2:	4b de       	rcall	.-874    	; 0x43a <_Z15Stepper_setup_Xm>
     7a4:	0b c0       	rjmp	.+22     	; 0x7bc <_Z8RunSpeedhh+0x58>
     7a6:	80 91 5a 06 	lds	r24, 0x065A	; 0x80065a <Steps_Y>
     7aa:	90 91 5b 06 	lds	r25, 0x065B	; 0x80065b <Steps_Y+0x1>
     7ae:	a0 91 5c 06 	lds	r26, 0x065C	; 0x80065c <Steps_Y+0x2>
     7b2:	b0 91 5d 06 	lds	r27, 0x065D	; 0x80065d <Steps_Y+0x3>
     7b6:	bc 01       	movw	r22, r24
     7b8:	cd 01       	movw	r24, r26
     7ba:	b4 de       	rcall	.-664    	; 0x524 <_Z15Stepper_setup_Ym>
     7bc:	00 00       	nop
     7be:	0f 90       	pop	r0
     7c0:	0f 90       	pop	r0
     7c2:	df 91       	pop	r29
     7c4:	cf 91       	pop	r28
     7c6:	08 95       	ret

000007c8 <_Z7RunStephhm>:
     7c8:	cf 93       	push	r28
     7ca:	df 93       	push	r29
     7cc:	00 d0       	rcall	.+0      	; 0x7ce <_Z7RunStephhm+0x6>
     7ce:	00 d0       	rcall	.+0      	; 0x7d0 <_Z7RunStephhm+0x8>
     7d0:	cd b7       	in	r28, 0x3d	; 61
     7d2:	de b7       	in	r29, 0x3e	; 62
     7d4:	89 83       	std	Y+1, r24	; 0x01
     7d6:	6a 83       	std	Y+2, r22	; 0x02
     7d8:	2b 83       	std	Y+3, r18	; 0x03
     7da:	3c 83       	std	Y+4, r19	; 0x04
     7dc:	4d 83       	std	Y+5, r20	; 0x05
     7de:	5e 83       	std	Y+6, r21	; 0x06
     7e0:	6a 81       	ldd	r22, Y+2	; 0x02
     7e2:	89 81       	ldd	r24, Y+1	; 0x01
     7e4:	bf df       	rcall	.-130    	; 0x764 <_Z8RunSpeedhh>
     7e6:	89 81       	ldd	r24, Y+1	; 0x01
     7e8:	88 23       	and	r24, r24
     7ea:	69 f4       	brne	.+26     	; 0x806 <_Z7RunStephhm+0x3e>
     7ec:	8b 81       	ldd	r24, Y+3	; 0x03
     7ee:	9c 81       	ldd	r25, Y+4	; 0x04
     7f0:	ad 81       	ldd	r26, Y+5	; 0x05
     7f2:	be 81       	ldd	r27, Y+6	; 0x06
     7f4:	80 93 28 06 	sts	0x0628, r24	; 0x800628 <Pasi_decrement_X>
     7f8:	90 93 29 06 	sts	0x0629, r25	; 0x800629 <Pasi_decrement_X+0x1>
     7fc:	a0 93 2a 06 	sts	0x062A, r26	; 0x80062a <Pasi_decrement_X+0x2>
     800:	b0 93 2b 06 	sts	0x062B, r27	; 0x80062b <Pasi_decrement_X+0x3>
     804:	0c c0       	rjmp	.+24     	; 0x81e <_Z7RunStephhm+0x56>
     806:	8b 81       	ldd	r24, Y+3	; 0x03
     808:	9c 81       	ldd	r25, Y+4	; 0x04
     80a:	ad 81       	ldd	r26, Y+5	; 0x05
     80c:	be 81       	ldd	r27, Y+6	; 0x06
     80e:	80 93 2c 06 	sts	0x062C, r24	; 0x80062c <Pasi_decrement_Y>
     812:	90 93 2d 06 	sts	0x062D, r25	; 0x80062d <Pasi_decrement_Y+0x1>
     816:	a0 93 2e 06 	sts	0x062E, r26	; 0x80062e <Pasi_decrement_Y+0x2>
     81a:	b0 93 2f 06 	sts	0x062F, r27	; 0x80062f <Pasi_decrement_Y+0x3>
     81e:	89 81       	ldd	r24, Y+1	; 0x01
     820:	88 23       	and	r24, r24
     822:	21 f4       	brne	.+8      	; 0x82c <_Z7RunStephhm+0x64>
     824:	81 e0       	ldi	r24, 0x01	; 1
     826:	80 93 30 06 	sts	0x0630, r24	; 0x800630 <Fanion_RunStep_X>
     82a:	03 c0       	rjmp	.+6      	; 0x832 <_Z7RunStephhm+0x6a>
     82c:	81 e0       	ldi	r24, 0x01	; 1
     82e:	80 93 31 06 	sts	0x0631, r24	; 0x800631 <Fanion_RunStep_Y>
     832:	00 00       	nop
     834:	26 96       	adiw	r28, 0x06	; 6
     836:	0f b6       	in	r0, 0x3f	; 63
     838:	f8 94       	cli
     83a:	de bf       	out	0x3e, r29	; 62
     83c:	0f be       	out	0x3f, r0	; 63
     83e:	cd bf       	out	0x3d, r28	; 61
     840:	df 91       	pop	r29
     842:	cf 91       	pop	r28
     844:	08 95       	ret

00000846 <_Z19USART_send_hardwareh>:
/************************* Transmiterea unui byte UART_hardware *************************/
void USART_send_hardware(unsigned char data)
{
     846:	cf 93       	push	r28
     848:	df 93       	push	r29
     84a:	1f 92       	push	r1
     84c:	cd b7       	in	r28, 0x3d	; 61
     84e:	de b7       	in	r29, 0x3e	; 62
     850:	89 83       	std	Y+1, r24	; 0x01
	while(!(UCSR0A & (1<<UDRE0)));
     852:	80 ec       	ldi	r24, 0xC0	; 192
     854:	90 e0       	ldi	r25, 0x00	; 0
     856:	fc 01       	movw	r30, r24
     858:	80 81       	ld	r24, Z
     85a:	88 2f       	mov	r24, r24
     85c:	90 e0       	ldi	r25, 0x00	; 0
     85e:	80 72       	andi	r24, 0x20	; 32
     860:	99 27       	eor	r25, r25
     862:	21 e0       	ldi	r18, 0x01	; 1
     864:	89 2b       	or	r24, r25
     866:	09 f0       	breq	.+2      	; 0x86a <_Z19USART_send_hardwareh+0x24>
     868:	20 e0       	ldi	r18, 0x00	; 0
     86a:	22 23       	and	r18, r18
     86c:	09 f0       	breq	.+2      	; 0x870 <_Z19USART_send_hardwareh+0x2a>
     86e:	f1 cf       	rjmp	.-30     	; 0x852 <_Z19USART_send_hardwareh+0xc>
	UDR0 = data;
     870:	86 ec       	ldi	r24, 0xC6	; 198
     872:	90 e0       	ldi	r25, 0x00	; 0
     874:	29 81       	ldd	r18, Y+1	; 0x01
     876:	fc 01       	movw	r30, r24
     878:	20 83       	st	Z, r18
}
     87a:	00 00       	nop
     87c:	0f 90       	pop	r0
     87e:	df 91       	pop	r29
     880:	cf 91       	pop	r28
     882:	08 95       	ret

00000884 <_Z24USART_putstring_hardwarePc>:
/************************* Transmiterea unui sir de caractere UART_hardware *************************/
void USART_putstring_hardware(char* StringPtr)
{
     884:	cf 93       	push	r28
     886:	df 93       	push	r29
     888:	1f 92       	push	r1
     88a:	1f 92       	push	r1
     88c:	cd b7       	in	r28, 0x3d	; 61
     88e:	de b7       	in	r29, 0x3e	; 62
     890:	9a 83       	std	Y+2, r25	; 0x02
     892:	89 83       	std	Y+1, r24	; 0x01
	while(*StringPtr != 0x00)
     894:	89 81       	ldd	r24, Y+1	; 0x01
     896:	9a 81       	ldd	r25, Y+2	; 0x02
     898:	fc 01       	movw	r30, r24
     89a:	80 81       	ld	r24, Z
     89c:	88 23       	and	r24, r24
     89e:	59 f0       	breq	.+22     	; 0x8b6 <_Z24USART_putstring_hardwarePc+0x32>
	{
		USART_send_hardware(*StringPtr);
     8a0:	89 81       	ldd	r24, Y+1	; 0x01
     8a2:	9a 81       	ldd	r25, Y+2	; 0x02
     8a4:	fc 01       	movw	r30, r24
     8a6:	80 81       	ld	r24, Z
     8a8:	ce df       	rcall	.-100    	; 0x846 <_Z19USART_send_hardwareh>
		StringPtr++;
     8aa:	89 81       	ldd	r24, Y+1	; 0x01
     8ac:	9a 81       	ldd	r25, Y+2	; 0x02
     8ae:	01 96       	adiw	r24, 0x01	; 1
     8b0:	9a 83       	std	Y+2, r25	; 0x02
     8b2:	89 83       	std	Y+1, r24	; 0x01
	UDR0 = data;
}
/************************* Transmiterea unui sir de caractere UART_hardware *************************/
void USART_putstring_hardware(char* StringPtr)
{
	while(*StringPtr != 0x00)
     8b4:	ef cf       	rjmp	.-34     	; 0x894 <_Z24USART_putstring_hardwarePc+0x10>
	{
		USART_send_hardware(*StringPtr);
		StringPtr++;
	}
}
     8b6:	00 00       	nop
     8b8:	0f 90       	pop	r0
     8ba:	0f 90       	pop	r0
     8bc:	df 91       	pop	r29
     8be:	cf 91       	pop	r28
     8c0:	08 95       	ret

000008c2 <_Z20Parametri_de_intrarev>:

void Parametri_de_intrare()
{
     8c2:	cf 92       	push	r12
     8c4:	df 92       	push	r13
     8c6:	ef 92       	push	r14
     8c8:	ff 92       	push	r15
     8ca:	0f 93       	push	r16
     8cc:	1f 93       	push	r17
     8ce:	cf 93       	push	r28
     8d0:	df 93       	push	r29
     8d2:	cd b7       	in	r28, 0x3d	; 61
     8d4:	de b7       	in	r29, 0x3e	; 62
     8d6:	2e 97       	sbiw	r28, 0x0e	; 14
     8d8:	0f b6       	in	r0, 0x3f	; 63
     8da:	f8 94       	cli
     8dc:	de bf       	out	0x3e, r29	; 62
     8de:	0f be       	out	0x3f, r0	; 63
     8e0:	cd bf       	out	0x3d, r28	; 61
		sprintf(Transmite_buf, "Helllo\n\n");
     8e2:	89 e0       	ldi	r24, 0x09	; 9
     8e4:	e0 e0       	ldi	r30, 0x00	; 0
     8e6:	f2 e0       	ldi	r31, 0x02	; 2
     8e8:	a6 e1       	ldi	r26, 0x16	; 22
     8ea:	b5 e0       	ldi	r27, 0x05	; 5
     8ec:	01 90       	ld	r0, Z+
     8ee:	0d 92       	st	X+, r0
     8f0:	8a 95       	dec	r24
     8f2:	e1 f7       	brne	.-8      	; 0x8ec <_Z20Parametri_de_intrarev+0x2a>
		USART_putstring_hardware(Transmite_buf);
     8f4:	86 e1       	ldi	r24, 0x16	; 22
     8f6:	95 e0       	ldi	r25, 0x05	; 5
     8f8:	c5 df       	rcall	.-118    	; 0x884 <_Z24USART_putstring_hardwarePc>
		PORTB ^= 1<<LED;
     8fa:	85 e2       	ldi	r24, 0x25	; 37
     8fc:	90 e0       	ldi	r25, 0x00	; 0
     8fe:	25 e2       	ldi	r18, 0x25	; 37
     900:	30 e0       	ldi	r19, 0x00	; 0
     902:	f9 01       	movw	r30, r18
     904:	30 81       	ld	r19, Z
     906:	20 e8       	ldi	r18, 0x80	; 128
     908:	23 27       	eor	r18, r19
     90a:	fc 01       	movw	r30, r24
     90c:	20 83       	st	Z, r18
		
		unsigned char flag=0, contor_cifre=0;
     90e:	19 82       	std	Y+1, r1	; 0x01
     910:	1a 82       	std	Y+2, r1	; 0x02
		unsigned long int Diametrul_sarmei_parteaintreaga=0;
     912:	1b 82       	std	Y+3, r1	; 0x03
     914:	1c 82       	std	Y+4, r1	; 0x04
     916:	1d 82       	std	Y+5, r1	; 0x05
     918:	1e 82       	std	Y+6, r1	; 0x06
		sprintf(Transmite_buf, "Diametrul sarmei in mm? \n");
     91a:	8a e1       	ldi	r24, 0x1A	; 26
     91c:	e9 e0       	ldi	r30, 0x09	; 9
     91e:	f2 e0       	ldi	r31, 0x02	; 2
     920:	a6 e1       	ldi	r26, 0x16	; 22
     922:	b5 e0       	ldi	r27, 0x05	; 5
     924:	01 90       	ld	r0, Z+
     926:	0d 92       	st	X+, r0
     928:	8a 95       	dec	r24
     92a:	e1 f7       	brne	.-8      	; 0x924 <_Z20Parametri_de_intrarev+0x62>
		USART_putstring_hardware(Transmite_buf);
     92c:	86 e1       	ldi	r24, 0x16	; 22
     92e:	95 e0       	ldi	r25, 0x05	; 5
     930:	a9 df       	rcall	.-174    	; 0x884 <_Z24USART_putstring_hardwarePc>
		while(fanion_asteapta_raspuns==0)
     932:	90 91 19 06 	lds	r25, 0x0619	; 0x800619 <fanion_asteapta_raspuns>
     936:	81 e0       	ldi	r24, 0x01	; 1
     938:	99 23       	and	r25, r25
     93a:	09 f0       	breq	.+2      	; 0x93e <_Z20Parametri_de_intrarev+0x7c>
     93c:	80 e0       	ldi	r24, 0x00	; 0
     93e:	88 23       	and	r24, r24
     940:	09 f4       	brne	.+2      	; 0x944 <_Z20Parametri_de_intrarev+0x82>
     942:	a1 c0       	rjmp	.+322    	; 0xa86 <_Z20Parametri_de_intrarev+0x1c4>
			{
				while(Receive_C>0)
     944:	90 91 17 06 	lds	r25, 0x0617	; 0x800617 <Receive_C>
     948:	81 e0       	ldi	r24, 0x01	; 1
     94a:	99 23       	and	r25, r25
     94c:	09 f4       	brne	.+2      	; 0x950 <_Z20Parametri_de_intrarev+0x8e>
     94e:	80 e0       	ldi	r24, 0x00	; 0
     950:	88 23       	and	r24, r24
     952:	79 f3       	breq	.-34     	; 0x932 <_Z20Parametri_de_intrarev+0x70>
					{
						if(Receive_buf[Receive_R] == '.')
     954:	80 91 18 06 	lds	r24, 0x0618	; 0x800618 <Receive_R>
     958:	88 2f       	mov	r24, r24
     95a:	90 e0       	ldi	r25, 0x00	; 0
     95c:	8a 5e       	subi	r24, 0xEA	; 234
     95e:	9b 4f       	sbci	r25, 0xFB	; 251
     960:	fc 01       	movw	r30, r24
     962:	90 81       	ld	r25, Z
     964:	81 e0       	ldi	r24, 0x01	; 1
     966:	9e 32       	cpi	r25, 0x2E	; 46
     968:	09 f0       	breq	.+2      	; 0x96c <_Z20Parametri_de_intrarev+0xaa>
     96a:	80 e0       	ldi	r24, 0x00	; 0
     96c:	88 23       	and	r24, r24
     96e:	11 f0       	breq	.+4      	; 0x974 <_Z20Parametri_de_intrarev+0xb2>
							flag=1;
     970:	81 e0       	ldi	r24, 0x01	; 1
     972:	89 83       	std	Y+1, r24	; 0x01
					
						if(flag==0)
     974:	89 81       	ldd	r24, Y+1	; 0x01
     976:	88 23       	and	r24, r24
     978:	69 f5       	brne	.+90     	; 0x9d4 <_Z20Parametri_de_intrarev+0x112>
							Diametrul_sarmei_parteaintreaga = ((Diametrul_sarmei_parteaintreaga*10) + (Receive_buf[Receive_R]-0x30));
     97a:	8b 81       	ldd	r24, Y+3	; 0x03
     97c:	9c 81       	ldd	r25, Y+4	; 0x04
     97e:	ad 81       	ldd	r26, Y+5	; 0x05
     980:	be 81       	ldd	r27, Y+6	; 0x06
     982:	88 0f       	add	r24, r24
     984:	99 1f       	adc	r25, r25
     986:	aa 1f       	adc	r26, r26
     988:	bb 1f       	adc	r27, r27
     98a:	9c 01       	movw	r18, r24
     98c:	ad 01       	movw	r20, r26
     98e:	22 0f       	add	r18, r18
     990:	33 1f       	adc	r19, r19
     992:	44 1f       	adc	r20, r20
     994:	55 1f       	adc	r21, r21
     996:	22 0f       	add	r18, r18
     998:	33 1f       	adc	r19, r19
     99a:	44 1f       	adc	r20, r20
     99c:	55 1f       	adc	r21, r21
     99e:	28 0f       	add	r18, r24
     9a0:	39 1f       	adc	r19, r25
     9a2:	4a 1f       	adc	r20, r26
     9a4:	5b 1f       	adc	r21, r27
     9a6:	80 91 18 06 	lds	r24, 0x0618	; 0x800618 <Receive_R>
     9aa:	88 2f       	mov	r24, r24
     9ac:	90 e0       	ldi	r25, 0x00	; 0
     9ae:	8a 5e       	subi	r24, 0xEA	; 234
     9b0:	9b 4f       	sbci	r25, 0xFB	; 251
     9b2:	fc 01       	movw	r30, r24
     9b4:	80 81       	ld	r24, Z
     9b6:	88 2f       	mov	r24, r24
     9b8:	90 e0       	ldi	r25, 0x00	; 0
     9ba:	c0 97       	sbiw	r24, 0x30	; 48
     9bc:	09 2e       	mov	r0, r25
     9be:	00 0c       	add	r0, r0
     9c0:	aa 0b       	sbc	r26, r26
     9c2:	bb 0b       	sbc	r27, r27
     9c4:	82 0f       	add	r24, r18
     9c6:	93 1f       	adc	r25, r19
     9c8:	a4 1f       	adc	r26, r20
     9ca:	b5 1f       	adc	r27, r21
     9cc:	8b 83       	std	Y+3, r24	; 0x03
     9ce:	9c 83       	std	Y+4, r25	; 0x04
     9d0:	ad 83       	std	Y+5, r26	; 0x05
     9d2:	be 83       	std	Y+6, r27	; 0x06
					
						if(Receive_buf[Receive_R] != '.' && flag==1)
     9d4:	80 91 18 06 	lds	r24, 0x0618	; 0x800618 <Receive_R>
     9d8:	88 2f       	mov	r24, r24
     9da:	90 e0       	ldi	r25, 0x00	; 0
     9dc:	8a 5e       	subi	r24, 0xEA	; 234
     9de:	9b 4f       	sbci	r25, 0xFB	; 251
     9e0:	fc 01       	movw	r30, r24
     9e2:	80 81       	ld	r24, Z
     9e4:	8e 32       	cpi	r24, 0x2E	; 46
     9e6:	29 f0       	breq	.+10     	; 0x9f2 <_Z20Parametri_de_intrarev+0x130>
     9e8:	89 81       	ldd	r24, Y+1	; 0x01
     9ea:	81 30       	cpi	r24, 0x01	; 1
     9ec:	11 f4       	brne	.+4      	; 0x9f2 <_Z20Parametri_de_intrarev+0x130>
     9ee:	81 e0       	ldi	r24, 0x01	; 1
     9f0:	01 c0       	rjmp	.+2      	; 0x9f4 <_Z20Parametri_de_intrarev+0x132>
     9f2:	80 e0       	ldi	r24, 0x00	; 0
     9f4:	88 23       	and	r24, r24
     9f6:	e1 f1       	breq	.+120    	; 0xa70 <_Z20Parametri_de_intrarev+0x1ae>
							{
								Diametrul_sarmei = ((Diametrul_sarmei*10) + (Receive_buf[Receive_R]-0x30));
     9f8:	80 91 42 06 	lds	r24, 0x0642	; 0x800642 <Diametrul_sarmei>
     9fc:	90 91 43 06 	lds	r25, 0x0643	; 0x800643 <Diametrul_sarmei+0x1>
     a00:	a0 91 44 06 	lds	r26, 0x0644	; 0x800644 <Diametrul_sarmei+0x2>
     a04:	b0 91 45 06 	lds	r27, 0x0645	; 0x800645 <Diametrul_sarmei+0x3>
     a08:	20 e0       	ldi	r18, 0x00	; 0
     a0a:	30 e0       	ldi	r19, 0x00	; 0
     a0c:	40 e2       	ldi	r20, 0x20	; 32
     a0e:	51 e4       	ldi	r21, 0x41	; 65
     a10:	bc 01       	movw	r22, r24
     a12:	cd 01       	movw	r24, r26
     a14:	0e 94 b0 13 	call	0x2760	; 0x2760 <__mulsf3>
     a18:	dc 01       	movw	r26, r24
     a1a:	cb 01       	movw	r24, r22
     a1c:	6c 01       	movw	r12, r24
     a1e:	7d 01       	movw	r14, r26
     a20:	80 91 18 06 	lds	r24, 0x0618	; 0x800618 <Receive_R>
     a24:	88 2f       	mov	r24, r24
     a26:	90 e0       	ldi	r25, 0x00	; 0
     a28:	8a 5e       	subi	r24, 0xEA	; 234
     a2a:	9b 4f       	sbci	r25, 0xFB	; 251
     a2c:	fc 01       	movw	r30, r24
     a2e:	80 81       	ld	r24, Z
     a30:	88 2f       	mov	r24, r24
     a32:	90 e0       	ldi	r25, 0x00	; 0
     a34:	c0 97       	sbiw	r24, 0x30	; 48
     a36:	09 2e       	mov	r0, r25
     a38:	00 0c       	add	r0, r0
     a3a:	aa 0b       	sbc	r26, r26
     a3c:	bb 0b       	sbc	r27, r27
     a3e:	bc 01       	movw	r22, r24
     a40:	cd 01       	movw	r24, r26
     a42:	0e 94 bc 12 	call	0x2578	; 0x2578 <__floatsisf>
     a46:	dc 01       	movw	r26, r24
     a48:	cb 01       	movw	r24, r22
     a4a:	9c 01       	movw	r18, r24
     a4c:	ad 01       	movw	r20, r26
     a4e:	c7 01       	movw	r24, r14
     a50:	b6 01       	movw	r22, r12
     a52:	0e 94 ab 11 	call	0x2356	; 0x2356 <__addsf3>
     a56:	dc 01       	movw	r26, r24
     a58:	cb 01       	movw	r24, r22
     a5a:	80 93 42 06 	sts	0x0642, r24	; 0x800642 <Diametrul_sarmei>
     a5e:	90 93 43 06 	sts	0x0643, r25	; 0x800643 <Diametrul_sarmei+0x1>
     a62:	a0 93 44 06 	sts	0x0644, r26	; 0x800644 <Diametrul_sarmei+0x2>
     a66:	b0 93 45 06 	sts	0x0645, r27	; 0x800645 <Diametrul_sarmei+0x3>
								contor_cifre++;
     a6a:	8a 81       	ldd	r24, Y+2	; 0x02
     a6c:	8f 5f       	subi	r24, 0xFF	; 255
     a6e:	8a 83       	std	Y+2, r24	; 0x02
							}
						Receive_R++;
     a70:	80 91 18 06 	lds	r24, 0x0618	; 0x800618 <Receive_R>
     a74:	8f 5f       	subi	r24, 0xFF	; 255
     a76:	80 93 18 06 	sts	0x0618, r24	; 0x800618 <Receive_R>
						Receive_C--;
     a7a:	80 91 17 06 	lds	r24, 0x0617	; 0x800617 <Receive_C>
     a7e:	81 50       	subi	r24, 0x01	; 1
     a80:	80 93 17 06 	sts	0x0617, r24	; 0x800617 <Receive_C>
		unsigned long int Diametrul_sarmei_parteaintreaga=0;
		sprintf(Transmite_buf, "Diametrul sarmei in mm? \n");
		USART_putstring_hardware(Transmite_buf);
		while(fanion_asteapta_raspuns==0)
			{
				while(Receive_C>0)
     a84:	5f cf       	rjmp	.-322    	; 0x944 <_Z20Parametri_de_intrarev+0x82>
							}
						Receive_R++;
						Receive_C--;
					}
			}
		while(contor_cifre>0)
     a86:	8a 81       	ldd	r24, Y+2	; 0x02
     a88:	88 23       	and	r24, r24
     a8a:	f1 f0       	breq	.+60     	; 0xac8 <_Z20Parametri_de_intrarev+0x206>
			{
				Diametrul_sarmei = Diametrul_sarmei/10;
     a8c:	80 91 42 06 	lds	r24, 0x0642	; 0x800642 <Diametrul_sarmei>
     a90:	90 91 43 06 	lds	r25, 0x0643	; 0x800643 <Diametrul_sarmei+0x1>
     a94:	a0 91 44 06 	lds	r26, 0x0644	; 0x800644 <Diametrul_sarmei+0x2>
     a98:	b0 91 45 06 	lds	r27, 0x0645	; 0x800645 <Diametrul_sarmei+0x3>
     a9c:	20 e0       	ldi	r18, 0x00	; 0
     a9e:	30 e0       	ldi	r19, 0x00	; 0
     aa0:	40 e2       	ldi	r20, 0x20	; 32
     aa2:	51 e4       	ldi	r21, 0x41	; 65
     aa4:	bc 01       	movw	r22, r24
     aa6:	cd 01       	movw	r24, r26
     aa8:	0e 94 26 12 	call	0x244c	; 0x244c <__divsf3>
     aac:	dc 01       	movw	r26, r24
     aae:	cb 01       	movw	r24, r22
     ab0:	80 93 42 06 	sts	0x0642, r24	; 0x800642 <Diametrul_sarmei>
     ab4:	90 93 43 06 	sts	0x0643, r25	; 0x800643 <Diametrul_sarmei+0x1>
     ab8:	a0 93 44 06 	sts	0x0644, r26	; 0x800644 <Diametrul_sarmei+0x2>
     abc:	b0 93 45 06 	sts	0x0645, r27	; 0x800645 <Diametrul_sarmei+0x3>
				contor_cifre--;	
     ac0:	8a 81       	ldd	r24, Y+2	; 0x02
     ac2:	81 50       	subi	r24, 0x01	; 1
     ac4:	8a 83       	std	Y+2, r24	; 0x02
							}
						Receive_R++;
						Receive_C--;
					}
			}
		while(contor_cifre>0)
     ac6:	df cf       	rjmp	.-66     	; 0xa86 <_Z20Parametri_de_intrarev+0x1c4>
			{
				Diametrul_sarmei = Diametrul_sarmei/10;
				contor_cifre--;	
			}
		Diametrul_sarmei = Diametrul_sarmei_parteaintreaga + Diametrul_sarmei;
     ac8:	6b 81       	ldd	r22, Y+3	; 0x03
     aca:	7c 81       	ldd	r23, Y+4	; 0x04
     acc:	8d 81       	ldd	r24, Y+5	; 0x05
     ace:	9e 81       	ldd	r25, Y+6	; 0x06
     ad0:	0e 94 ba 12 	call	0x2574	; 0x2574 <__floatunsisf>
     ad4:	7b 01       	movw	r14, r22
     ad6:	8c 01       	movw	r16, r24
     ad8:	80 91 42 06 	lds	r24, 0x0642	; 0x800642 <Diametrul_sarmei>
     adc:	90 91 43 06 	lds	r25, 0x0643	; 0x800643 <Diametrul_sarmei+0x1>
     ae0:	a0 91 44 06 	lds	r26, 0x0644	; 0x800644 <Diametrul_sarmei+0x2>
     ae4:	b0 91 45 06 	lds	r27, 0x0645	; 0x800645 <Diametrul_sarmei+0x3>
     ae8:	9c 01       	movw	r18, r24
     aea:	ad 01       	movw	r20, r26
     aec:	c8 01       	movw	r24, r16
     aee:	b7 01       	movw	r22, r14
     af0:	0e 94 ab 11 	call	0x2356	; 0x2356 <__addsf3>
     af4:	dc 01       	movw	r26, r24
     af6:	cb 01       	movw	r24, r22
     af8:	80 93 42 06 	sts	0x0642, r24	; 0x800642 <Diametrul_sarmei>
     afc:	90 93 43 06 	sts	0x0643, r25	; 0x800643 <Diametrul_sarmei+0x1>
     b00:	a0 93 44 06 	sts	0x0644, r26	; 0x800644 <Diametrul_sarmei+0x2>
     b04:	b0 93 45 06 	sts	0x0645, r27	; 0x800645 <Diametrul_sarmei+0x3>
		fanion_asteapta_raspuns=0;
     b08:	10 92 19 06 	sts	0x0619, r1	; 0x800619 <fanion_asteapta_raspuns>
		sprintf(Transmite_buf, "Diametrul sarmei este %.6f mm \n", Diametrul_sarmei);
     b0c:	80 91 42 06 	lds	r24, 0x0642	; 0x800642 <Diametrul_sarmei>
     b10:	90 91 43 06 	lds	r25, 0x0643	; 0x800643 <Diametrul_sarmei+0x1>
     b14:	a0 91 44 06 	lds	r26, 0x0644	; 0x800644 <Diametrul_sarmei+0x2>
     b18:	b0 91 45 06 	lds	r27, 0x0645	; 0x800645 <Diametrul_sarmei+0x3>
     b1c:	2b 2f       	mov	r18, r27
     b1e:	2f 93       	push	r18
     b20:	2a 2f       	mov	r18, r26
     b22:	2f 93       	push	r18
     b24:	29 2f       	mov	r18, r25
     b26:	2f 93       	push	r18
     b28:	8f 93       	push	r24
     b2a:	83 e2       	ldi	r24, 0x23	; 35
     b2c:	92 e0       	ldi	r25, 0x02	; 2
     b2e:	89 2f       	mov	r24, r25
     b30:	8f 93       	push	r24
     b32:	83 e2       	ldi	r24, 0x23	; 35
     b34:	92 e0       	ldi	r25, 0x02	; 2
     b36:	8f 93       	push	r24
     b38:	86 e1       	ldi	r24, 0x16	; 22
     b3a:	95 e0       	ldi	r25, 0x05	; 5
     b3c:	89 2f       	mov	r24, r25
     b3e:	8f 93       	push	r24
     b40:	86 e1       	ldi	r24, 0x16	; 22
     b42:	95 e0       	ldi	r25, 0x05	; 5
     b44:	8f 93       	push	r24
     b46:	0e 94 e8 18 	call	0x31d0	; 0x31d0 <sprintf>
     b4a:	8d b7       	in	r24, 0x3d	; 61
     b4c:	9e b7       	in	r25, 0x3e	; 62
     b4e:	08 96       	adiw	r24, 0x08	; 8
     b50:	0f b6       	in	r0, 0x3f	; 63
     b52:	f8 94       	cli
     b54:	de bf       	out	0x3e, r29	; 62
     b56:	0f be       	out	0x3f, r0	; 63
		USART_putstring_hardware(Transmite_buf);
     b58:	cd bf       	out	0x3d, r28	; 61
     b5a:	86 e1       	ldi	r24, 0x16	; 22
     b5c:	95 e0       	ldi	r25, 0x05	; 5
		
		sprintf(Transmite_buf, "Lungimea bobinei mm?\n");
     b5e:	92 de       	rcall	.-732    	; 0x884 <_Z24USART_putstring_hardwarePc>
     b60:	86 e1       	ldi	r24, 0x16	; 22
     b62:	e3 e4       	ldi	r30, 0x43	; 67
     b64:	f2 e0       	ldi	r31, 0x02	; 2
     b66:	a6 e1       	ldi	r26, 0x16	; 22
     b68:	b5 e0       	ldi	r27, 0x05	; 5
     b6a:	01 90       	ld	r0, Z+
     b6c:	0d 92       	st	X+, r0
		USART_putstring_hardware(Transmite_buf);
     b6e:	8a 95       	dec	r24
     b70:	e1 f7       	brne	.-8      	; 0xb6a <_Z20Parametri_de_intrarev+0x2a8>
     b72:	86 e1       	ldi	r24, 0x16	; 22
     b74:	95 e0       	ldi	r25, 0x05	; 5
		while(fanion_asteapta_raspuns==0)
     b76:	86 de       	rcall	.-756    	; 0x884 <_Z24USART_putstring_hardwarePc>
     b78:	90 91 19 06 	lds	r25, 0x0619	; 0x800619 <fanion_asteapta_raspuns>
     b7c:	81 e0       	ldi	r24, 0x01	; 1
     b7e:	99 23       	and	r25, r25
     b80:	09 f0       	breq	.+2      	; 0xb84 <_Z20Parametri_de_intrarev+0x2c2>
     b82:	80 e0       	ldi	r24, 0x00	; 0
     b84:	88 23       	and	r24, r24
     b86:	09 f4       	brne	.+2      	; 0xb8a <_Z20Parametri_de_intrarev+0x2c8>
			{
				while(Receive_C>0)
     b88:	48 c0       	rjmp	.+144    	; 0xc1a <_Z20Parametri_de_intrarev+0x358>
     b8a:	90 91 17 06 	lds	r25, 0x0617	; 0x800617 <Receive_C>
     b8e:	81 e0       	ldi	r24, 0x01	; 1
     b90:	99 23       	and	r25, r25
     b92:	09 f4       	brne	.+2      	; 0xb96 <_Z20Parametri_de_intrarev+0x2d4>
     b94:	80 e0       	ldi	r24, 0x00	; 0
     b96:	88 23       	and	r24, r24
				{
					Lungimea_bobinei = ((Lungimea_bobinei*10) + (Receive_buf[Receive_R]-0x30));
     b98:	79 f3       	breq	.-34     	; 0xb78 <_Z20Parametri_de_intrarev+0x2b6>
     b9a:	80 91 3a 06 	lds	r24, 0x063A	; 0x80063a <Lungimea_bobinei>
     b9e:	90 91 3b 06 	lds	r25, 0x063B	; 0x80063b <Lungimea_bobinei+0x1>
     ba2:	a0 91 3c 06 	lds	r26, 0x063C	; 0x80063c <Lungimea_bobinei+0x2>
     ba6:	b0 91 3d 06 	lds	r27, 0x063D	; 0x80063d <Lungimea_bobinei+0x3>
     baa:	88 0f       	add	r24, r24
     bac:	99 1f       	adc	r25, r25
     bae:	aa 1f       	adc	r26, r26
     bb0:	bb 1f       	adc	r27, r27
     bb2:	9c 01       	movw	r18, r24
     bb4:	ad 01       	movw	r20, r26
     bb6:	22 0f       	add	r18, r18
     bb8:	33 1f       	adc	r19, r19
     bba:	44 1f       	adc	r20, r20
     bbc:	55 1f       	adc	r21, r21
     bbe:	22 0f       	add	r18, r18
     bc0:	33 1f       	adc	r19, r19
     bc2:	44 1f       	adc	r20, r20
     bc4:	55 1f       	adc	r21, r21
     bc6:	28 0f       	add	r18, r24
     bc8:	39 1f       	adc	r19, r25
     bca:	4a 1f       	adc	r20, r26
     bcc:	5b 1f       	adc	r21, r27
     bce:	80 91 18 06 	lds	r24, 0x0618	; 0x800618 <Receive_R>
     bd2:	88 2f       	mov	r24, r24
     bd4:	90 e0       	ldi	r25, 0x00	; 0
     bd6:	8a 5e       	subi	r24, 0xEA	; 234
     bd8:	9b 4f       	sbci	r25, 0xFB	; 251
     bda:	fc 01       	movw	r30, r24
     bdc:	80 81       	ld	r24, Z
     bde:	88 2f       	mov	r24, r24
     be0:	90 e0       	ldi	r25, 0x00	; 0
     be2:	c0 97       	sbiw	r24, 0x30	; 48
     be4:	09 2e       	mov	r0, r25
     be6:	00 0c       	add	r0, r0
     be8:	aa 0b       	sbc	r26, r26
     bea:	bb 0b       	sbc	r27, r27
     bec:	82 0f       	add	r24, r18
     bee:	93 1f       	adc	r25, r19
     bf0:	a4 1f       	adc	r26, r20
     bf2:	b5 1f       	adc	r27, r21
     bf4:	80 93 3a 06 	sts	0x063A, r24	; 0x80063a <Lungimea_bobinei>
     bf8:	90 93 3b 06 	sts	0x063B, r25	; 0x80063b <Lungimea_bobinei+0x1>
     bfc:	a0 93 3c 06 	sts	0x063C, r26	; 0x80063c <Lungimea_bobinei+0x2>
     c00:	b0 93 3d 06 	sts	0x063D, r27	; 0x80063d <Lungimea_bobinei+0x3>
					Receive_R++;
     c04:	80 91 18 06 	lds	r24, 0x0618	; 0x800618 <Receive_R>
     c08:	8f 5f       	subi	r24, 0xFF	; 255
     c0a:	80 93 18 06 	sts	0x0618, r24	; 0x800618 <Receive_R>
					Receive_C--;
     c0e:	80 91 17 06 	lds	r24, 0x0617	; 0x800617 <Receive_C>
     c12:	81 50       	subi	r24, 0x01	; 1
     c14:	80 93 17 06 	sts	0x0617, r24	; 0x800617 <Receive_C>
				}
			}
		fanion_asteapta_raspuns=0;
     c18:	b8 cf       	rjmp	.-144    	; 0xb8a <_Z20Parametri_de_intrarev+0x2c8>
     c1a:	10 92 19 06 	sts	0x0619, r1	; 0x800619 <fanion_asteapta_raspuns>
		sprintf(Transmite_buf, "Lungimea bobinei este %lu mm \n", Lungimea_bobinei);
     c1e:	80 91 3a 06 	lds	r24, 0x063A	; 0x80063a <Lungimea_bobinei>
     c22:	90 91 3b 06 	lds	r25, 0x063B	; 0x80063b <Lungimea_bobinei+0x1>
     c26:	a0 91 3c 06 	lds	r26, 0x063C	; 0x80063c <Lungimea_bobinei+0x2>
     c2a:	b0 91 3d 06 	lds	r27, 0x063D	; 0x80063d <Lungimea_bobinei+0x3>
     c2e:	2b 2f       	mov	r18, r27
     c30:	2f 93       	push	r18
     c32:	2a 2f       	mov	r18, r26
     c34:	2f 93       	push	r18
     c36:	29 2f       	mov	r18, r25
     c38:	2f 93       	push	r18
     c3a:	8f 93       	push	r24
     c3c:	89 e5       	ldi	r24, 0x59	; 89
     c3e:	92 e0       	ldi	r25, 0x02	; 2
     c40:	89 2f       	mov	r24, r25
     c42:	8f 93       	push	r24
     c44:	89 e5       	ldi	r24, 0x59	; 89
     c46:	92 e0       	ldi	r25, 0x02	; 2
     c48:	8f 93       	push	r24
     c4a:	86 e1       	ldi	r24, 0x16	; 22
     c4c:	95 e0       	ldi	r25, 0x05	; 5
     c4e:	89 2f       	mov	r24, r25
     c50:	8f 93       	push	r24
     c52:	86 e1       	ldi	r24, 0x16	; 22
     c54:	95 e0       	ldi	r25, 0x05	; 5
     c56:	8f 93       	push	r24
     c58:	0e 94 e8 18 	call	0x31d0	; 0x31d0 <sprintf>
     c5c:	8d b7       	in	r24, 0x3d	; 61
     c5e:	9e b7       	in	r25, 0x3e	; 62
     c60:	08 96       	adiw	r24, 0x08	; 8
     c62:	0f b6       	in	r0, 0x3f	; 63
     c64:	f8 94       	cli
     c66:	de bf       	out	0x3e, r29	; 62
		USART_putstring_hardware(Transmite_buf);
     c68:	0f be       	out	0x3f, r0	; 63
     c6a:	cd bf       	out	0x3d, r28	; 61
     c6c:	86 e1       	ldi	r24, 0x16	; 22
     c6e:	95 e0       	ldi	r25, 0x05	; 5
		
		sprintf(Transmite_buf, "Numarul de spire?\n");
     c70:	09 de       	rcall	.-1006   	; 0x884 <_Z24USART_putstring_hardwarePc>
     c72:	83 e1       	ldi	r24, 0x13	; 19
     c74:	e8 e7       	ldi	r30, 0x78	; 120
     c76:	f2 e0       	ldi	r31, 0x02	; 2
     c78:	a6 e1       	ldi	r26, 0x16	; 22
     c7a:	b5 e0       	ldi	r27, 0x05	; 5
     c7c:	01 90       	ld	r0, Z+
     c7e:	0d 92       	st	X+, r0
		USART_putstring_hardware(Transmite_buf);
     c80:	8a 95       	dec	r24
     c82:	e1 f7       	brne	.-8      	; 0xc7c <_Z20Parametri_de_intrarev+0x3ba>
     c84:	86 e1       	ldi	r24, 0x16	; 22
     c86:	95 e0       	ldi	r25, 0x05	; 5
		while(fanion_asteapta_raspuns==0)
     c88:	fd dd       	rcall	.-1030   	; 0x884 <_Z24USART_putstring_hardwarePc>
     c8a:	90 91 19 06 	lds	r25, 0x0619	; 0x800619 <fanion_asteapta_raspuns>
     c8e:	81 e0       	ldi	r24, 0x01	; 1
     c90:	99 23       	and	r25, r25
     c92:	09 f0       	breq	.+2      	; 0xc96 <_Z20Parametri_de_intrarev+0x3d4>
     c94:	80 e0       	ldi	r24, 0x00	; 0
     c96:	88 23       	and	r24, r24
     c98:	09 f4       	brne	.+2      	; 0xc9c <_Z20Parametri_de_intrarev+0x3da>
			{
				while(Receive_C>0)
     c9a:	48 c0       	rjmp	.+144    	; 0xd2c <_Z20Parametri_de_intrarev+0x46a>
     c9c:	90 91 17 06 	lds	r25, 0x0617	; 0x800617 <Receive_C>
     ca0:	81 e0       	ldi	r24, 0x01	; 1
     ca2:	99 23       	and	r25, r25
     ca4:	09 f4       	brne	.+2      	; 0xca8 <_Z20Parametri_de_intrarev+0x3e6>
     ca6:	80 e0       	ldi	r24, 0x00	; 0
     ca8:	88 23       	and	r24, r24
					{
						Nr_spire = ((Nr_spire*10) + (Receive_buf[Receive_R]-0x30));
     caa:	79 f3       	breq	.-34     	; 0xc8a <_Z20Parametri_de_intrarev+0x3c8>
     cac:	80 91 3e 06 	lds	r24, 0x063E	; 0x80063e <Nr_spire>
     cb0:	90 91 3f 06 	lds	r25, 0x063F	; 0x80063f <Nr_spire+0x1>
     cb4:	a0 91 40 06 	lds	r26, 0x0640	; 0x800640 <Nr_spire+0x2>
     cb8:	b0 91 41 06 	lds	r27, 0x0641	; 0x800641 <Nr_spire+0x3>
     cbc:	88 0f       	add	r24, r24
     cbe:	99 1f       	adc	r25, r25
     cc0:	aa 1f       	adc	r26, r26
     cc2:	bb 1f       	adc	r27, r27
     cc4:	9c 01       	movw	r18, r24
     cc6:	ad 01       	movw	r20, r26
     cc8:	22 0f       	add	r18, r18
     cca:	33 1f       	adc	r19, r19
     ccc:	44 1f       	adc	r20, r20
     cce:	55 1f       	adc	r21, r21
     cd0:	22 0f       	add	r18, r18
     cd2:	33 1f       	adc	r19, r19
     cd4:	44 1f       	adc	r20, r20
     cd6:	55 1f       	adc	r21, r21
     cd8:	28 0f       	add	r18, r24
     cda:	39 1f       	adc	r19, r25
     cdc:	4a 1f       	adc	r20, r26
     cde:	5b 1f       	adc	r21, r27
     ce0:	80 91 18 06 	lds	r24, 0x0618	; 0x800618 <Receive_R>
     ce4:	88 2f       	mov	r24, r24
     ce6:	90 e0       	ldi	r25, 0x00	; 0
     ce8:	8a 5e       	subi	r24, 0xEA	; 234
     cea:	9b 4f       	sbci	r25, 0xFB	; 251
     cec:	fc 01       	movw	r30, r24
     cee:	80 81       	ld	r24, Z
     cf0:	88 2f       	mov	r24, r24
     cf2:	90 e0       	ldi	r25, 0x00	; 0
     cf4:	c0 97       	sbiw	r24, 0x30	; 48
     cf6:	09 2e       	mov	r0, r25
     cf8:	00 0c       	add	r0, r0
     cfa:	aa 0b       	sbc	r26, r26
     cfc:	bb 0b       	sbc	r27, r27
     cfe:	82 0f       	add	r24, r18
     d00:	93 1f       	adc	r25, r19
     d02:	a4 1f       	adc	r26, r20
     d04:	b5 1f       	adc	r27, r21
     d06:	80 93 3e 06 	sts	0x063E, r24	; 0x80063e <Nr_spire>
     d0a:	90 93 3f 06 	sts	0x063F, r25	; 0x80063f <Nr_spire+0x1>
     d0e:	a0 93 40 06 	sts	0x0640, r26	; 0x800640 <Nr_spire+0x2>
     d12:	b0 93 41 06 	sts	0x0641, r27	; 0x800641 <Nr_spire+0x3>
						Receive_R++;
     d16:	80 91 18 06 	lds	r24, 0x0618	; 0x800618 <Receive_R>
     d1a:	8f 5f       	subi	r24, 0xFF	; 255
     d1c:	80 93 18 06 	sts	0x0618, r24	; 0x800618 <Receive_R>
						Receive_C--;
     d20:	80 91 17 06 	lds	r24, 0x0617	; 0x800617 <Receive_C>
     d24:	81 50       	subi	r24, 0x01	; 1
     d26:	80 93 17 06 	sts	0x0617, r24	; 0x800617 <Receive_C>
					}
			}
		fanion_asteapta_raspuns=0;
     d2a:	b8 cf       	rjmp	.-144    	; 0xc9c <_Z20Parametri_de_intrarev+0x3da>
     d2c:	10 92 19 06 	sts	0x0619, r1	; 0x800619 <fanion_asteapta_raspuns>
		sprintf(Transmite_buf, "Numarul de spire este %lu \n", Nr_spire);
     d30:	80 91 3e 06 	lds	r24, 0x063E	; 0x80063e <Nr_spire>
     d34:	90 91 3f 06 	lds	r25, 0x063F	; 0x80063f <Nr_spire+0x1>
     d38:	a0 91 40 06 	lds	r26, 0x0640	; 0x800640 <Nr_spire+0x2>
     d3c:	b0 91 41 06 	lds	r27, 0x0641	; 0x800641 <Nr_spire+0x3>
     d40:	2b 2f       	mov	r18, r27
     d42:	2f 93       	push	r18
     d44:	2a 2f       	mov	r18, r26
     d46:	2f 93       	push	r18
     d48:	29 2f       	mov	r18, r25
     d4a:	2f 93       	push	r18
     d4c:	8f 93       	push	r24
     d4e:	8b e8       	ldi	r24, 0x8B	; 139
     d50:	92 e0       	ldi	r25, 0x02	; 2
     d52:	89 2f       	mov	r24, r25
     d54:	8f 93       	push	r24
     d56:	8b e8       	ldi	r24, 0x8B	; 139
     d58:	92 e0       	ldi	r25, 0x02	; 2
     d5a:	8f 93       	push	r24
     d5c:	86 e1       	ldi	r24, 0x16	; 22
     d5e:	95 e0       	ldi	r25, 0x05	; 5
     d60:	89 2f       	mov	r24, r25
     d62:	8f 93       	push	r24
     d64:	86 e1       	ldi	r24, 0x16	; 22
     d66:	95 e0       	ldi	r25, 0x05	; 5
     d68:	8f 93       	push	r24
     d6a:	0e 94 e8 18 	call	0x31d0	; 0x31d0 <sprintf>
     d6e:	8d b7       	in	r24, 0x3d	; 61
     d70:	9e b7       	in	r25, 0x3e	; 62
     d72:	08 96       	adiw	r24, 0x08	; 8
     d74:	0f b6       	in	r0, 0x3f	; 63
     d76:	f8 94       	cli
     d78:	de bf       	out	0x3e, r29	; 62
		USART_putstring_hardware(Transmite_buf);
     d7a:	0f be       	out	0x3f, r0	; 63
     d7c:	cd bf       	out	0x3d, r28	; 61
     d7e:	86 e1       	ldi	r24, 0x16	; 22
     d80:	95 e0       	ldi	r25, 0x05	; 5
		
		flag=0;
     d82:	80 dd       	rcall	.-1280   	; 0x884 <_Z24USART_putstring_hardwarePc>
		contor_cifre=0;
     d84:	19 82       	std	Y+1, r1	; 0x01
		unsigned long int Coef_deplasare_parteaintreaga=0;
     d86:	1a 82       	std	Y+2, r1	; 0x02
     d88:	1f 82       	std	Y+7, r1	; 0x07
     d8a:	18 86       	std	Y+8, r1	; 0x08
     d8c:	19 86       	std	Y+9, r1	; 0x09
		sprintf(Transmite_buf, "Coeficientul de deplasare?\n");
     d8e:	1a 86       	std	Y+10, r1	; 0x0a
     d90:	8c e1       	ldi	r24, 0x1C	; 28
     d92:	e7 ea       	ldi	r30, 0xA7	; 167
     d94:	f2 e0       	ldi	r31, 0x02	; 2
     d96:	a6 e1       	ldi	r26, 0x16	; 22
     d98:	b5 e0       	ldi	r27, 0x05	; 5
     d9a:	01 90       	ld	r0, Z+
     d9c:	0d 92       	st	X+, r0
		USART_putstring_hardware(Transmite_buf);
     d9e:	8a 95       	dec	r24
     da0:	e1 f7       	brne	.-8      	; 0xd9a <_Z20Parametri_de_intrarev+0x4d8>
     da2:	86 e1       	ldi	r24, 0x16	; 22
     da4:	95 e0       	ldi	r25, 0x05	; 5
		while(fanion_asteapta_raspuns==0)
     da6:	6e dd       	rcall	.-1316   	; 0x884 <_Z24USART_putstring_hardwarePc>
     da8:	90 91 19 06 	lds	r25, 0x0619	; 0x800619 <fanion_asteapta_raspuns>
     dac:	81 e0       	ldi	r24, 0x01	; 1
     dae:	99 23       	and	r25, r25
     db0:	09 f0       	breq	.+2      	; 0xdb4 <_Z20Parametri_de_intrarev+0x4f2>
     db2:	80 e0       	ldi	r24, 0x00	; 0
     db4:	88 23       	and	r24, r24
     db6:	09 f4       	brne	.+2      	; 0xdba <_Z20Parametri_de_intrarev+0x4f8>
				{
					while(Receive_C>0)
     db8:	a1 c0       	rjmp	.+322    	; 0xefc <_Z20Parametri_de_intrarev+0x63a>
     dba:	90 91 17 06 	lds	r25, 0x0617	; 0x800617 <Receive_C>
     dbe:	81 e0       	ldi	r24, 0x01	; 1
     dc0:	99 23       	and	r25, r25
     dc2:	09 f4       	brne	.+2      	; 0xdc6 <_Z20Parametri_de_intrarev+0x504>
     dc4:	80 e0       	ldi	r24, 0x00	; 0
     dc6:	88 23       	and	r24, r24
						{
							if(Receive_buf[Receive_R] == '.')
     dc8:	79 f3       	breq	.-34     	; 0xda8 <_Z20Parametri_de_intrarev+0x4e6>
     dca:	80 91 18 06 	lds	r24, 0x0618	; 0x800618 <Receive_R>
     dce:	88 2f       	mov	r24, r24
     dd0:	90 e0       	ldi	r25, 0x00	; 0
     dd2:	8a 5e       	subi	r24, 0xEA	; 234
     dd4:	9b 4f       	sbci	r25, 0xFB	; 251
     dd6:	fc 01       	movw	r30, r24
     dd8:	90 81       	ld	r25, Z
     dda:	81 e0       	ldi	r24, 0x01	; 1
     ddc:	9e 32       	cpi	r25, 0x2E	; 46
     dde:	09 f0       	breq	.+2      	; 0xde2 <_Z20Parametri_de_intrarev+0x520>
     de0:	80 e0       	ldi	r24, 0x00	; 0
     de2:	88 23       	and	r24, r24
								flag=1;
     de4:	11 f0       	breq	.+4      	; 0xdea <_Z20Parametri_de_intrarev+0x528>
     de6:	81 e0       	ldi	r24, 0x01	; 1
						
							if(flag==0)
     de8:	89 83       	std	Y+1, r24	; 0x01
     dea:	89 81       	ldd	r24, Y+1	; 0x01
     dec:	88 23       	and	r24, r24
								Coef_deplasare_parteaintreaga = ((Coef_deplasare_parteaintreaga*10) + (Receive_buf[Receive_R]-0x30));
     dee:	69 f5       	brne	.+90     	; 0xe4a <_Z20Parametri_de_intrarev+0x588>
     df0:	8f 81       	ldd	r24, Y+7	; 0x07
     df2:	98 85       	ldd	r25, Y+8	; 0x08
     df4:	a9 85       	ldd	r26, Y+9	; 0x09
     df6:	ba 85       	ldd	r27, Y+10	; 0x0a
     df8:	88 0f       	add	r24, r24
     dfa:	99 1f       	adc	r25, r25
     dfc:	aa 1f       	adc	r26, r26
     dfe:	bb 1f       	adc	r27, r27
     e00:	9c 01       	movw	r18, r24
     e02:	ad 01       	movw	r20, r26
     e04:	22 0f       	add	r18, r18
     e06:	33 1f       	adc	r19, r19
     e08:	44 1f       	adc	r20, r20
     e0a:	55 1f       	adc	r21, r21
     e0c:	22 0f       	add	r18, r18
     e0e:	33 1f       	adc	r19, r19
     e10:	44 1f       	adc	r20, r20
     e12:	55 1f       	adc	r21, r21
     e14:	28 0f       	add	r18, r24
     e16:	39 1f       	adc	r19, r25
     e18:	4a 1f       	adc	r20, r26
     e1a:	5b 1f       	adc	r21, r27
     e1c:	80 91 18 06 	lds	r24, 0x0618	; 0x800618 <Receive_R>
     e20:	88 2f       	mov	r24, r24
     e22:	90 e0       	ldi	r25, 0x00	; 0
     e24:	8a 5e       	subi	r24, 0xEA	; 234
     e26:	9b 4f       	sbci	r25, 0xFB	; 251
     e28:	fc 01       	movw	r30, r24
     e2a:	80 81       	ld	r24, Z
     e2c:	88 2f       	mov	r24, r24
     e2e:	90 e0       	ldi	r25, 0x00	; 0
     e30:	c0 97       	sbiw	r24, 0x30	; 48
     e32:	09 2e       	mov	r0, r25
     e34:	00 0c       	add	r0, r0
     e36:	aa 0b       	sbc	r26, r26
     e38:	bb 0b       	sbc	r27, r27
     e3a:	82 0f       	add	r24, r18
     e3c:	93 1f       	adc	r25, r19
     e3e:	a4 1f       	adc	r26, r20
     e40:	b5 1f       	adc	r27, r21
     e42:	8f 83       	std	Y+7, r24	; 0x07
     e44:	98 87       	std	Y+8, r25	; 0x08
     e46:	a9 87       	std	Y+9, r26	; 0x09
						
							if(Receive_buf[Receive_R] != '.' && flag==1)
     e48:	ba 87       	std	Y+10, r27	; 0x0a
     e4a:	80 91 18 06 	lds	r24, 0x0618	; 0x800618 <Receive_R>
     e4e:	88 2f       	mov	r24, r24
     e50:	90 e0       	ldi	r25, 0x00	; 0
     e52:	8a 5e       	subi	r24, 0xEA	; 234
     e54:	9b 4f       	sbci	r25, 0xFB	; 251
     e56:	fc 01       	movw	r30, r24
     e58:	80 81       	ld	r24, Z
     e5a:	8e 32       	cpi	r24, 0x2E	; 46
     e5c:	29 f0       	breq	.+10     	; 0xe68 <_Z20Parametri_de_intrarev+0x5a6>
     e5e:	89 81       	ldd	r24, Y+1	; 0x01
     e60:	81 30       	cpi	r24, 0x01	; 1
     e62:	11 f4       	brne	.+4      	; 0xe68 <_Z20Parametri_de_intrarev+0x5a6>
     e64:	81 e0       	ldi	r24, 0x01	; 1
     e66:	01 c0       	rjmp	.+2      	; 0xe6a <_Z20Parametri_de_intrarev+0x5a8>
     e68:	80 e0       	ldi	r24, 0x00	; 0
     e6a:	88 23       	and	r24, r24
								{
									Coef_deplasare = ((Coef_deplasare*10) + (Receive_buf[Receive_R]-0x30));
     e6c:	e1 f1       	breq	.+120    	; 0xee6 <_Z20Parametri_de_intrarev+0x624>
     e6e:	80 91 46 06 	lds	r24, 0x0646	; 0x800646 <Coef_deplasare>
     e72:	90 91 47 06 	lds	r25, 0x0647	; 0x800647 <Coef_deplasare+0x1>
     e76:	a0 91 48 06 	lds	r26, 0x0648	; 0x800648 <Coef_deplasare+0x2>
     e7a:	b0 91 49 06 	lds	r27, 0x0649	; 0x800649 <Coef_deplasare+0x3>
     e7e:	20 e0       	ldi	r18, 0x00	; 0
     e80:	30 e0       	ldi	r19, 0x00	; 0
     e82:	40 e2       	ldi	r20, 0x20	; 32
     e84:	51 e4       	ldi	r21, 0x41	; 65
     e86:	bc 01       	movw	r22, r24
     e88:	cd 01       	movw	r24, r26
     e8a:	0e 94 b0 13 	call	0x2760	; 0x2760 <__mulsf3>
     e8e:	dc 01       	movw	r26, r24
     e90:	cb 01       	movw	r24, r22
     e92:	6c 01       	movw	r12, r24
     e94:	7d 01       	movw	r14, r26
     e96:	80 91 18 06 	lds	r24, 0x0618	; 0x800618 <Receive_R>
     e9a:	88 2f       	mov	r24, r24
     e9c:	90 e0       	ldi	r25, 0x00	; 0
     e9e:	8a 5e       	subi	r24, 0xEA	; 234
     ea0:	9b 4f       	sbci	r25, 0xFB	; 251
     ea2:	fc 01       	movw	r30, r24
     ea4:	80 81       	ld	r24, Z
     ea6:	88 2f       	mov	r24, r24
     ea8:	90 e0       	ldi	r25, 0x00	; 0
     eaa:	c0 97       	sbiw	r24, 0x30	; 48
     eac:	09 2e       	mov	r0, r25
     eae:	00 0c       	add	r0, r0
     eb0:	aa 0b       	sbc	r26, r26
     eb2:	bb 0b       	sbc	r27, r27
     eb4:	bc 01       	movw	r22, r24
     eb6:	cd 01       	movw	r24, r26
     eb8:	0e 94 bc 12 	call	0x2578	; 0x2578 <__floatsisf>
     ebc:	dc 01       	movw	r26, r24
     ebe:	cb 01       	movw	r24, r22
     ec0:	9c 01       	movw	r18, r24
     ec2:	ad 01       	movw	r20, r26
     ec4:	c7 01       	movw	r24, r14
     ec6:	b6 01       	movw	r22, r12
     ec8:	0e 94 ab 11 	call	0x2356	; 0x2356 <__addsf3>
     ecc:	dc 01       	movw	r26, r24
     ece:	cb 01       	movw	r24, r22
     ed0:	80 93 46 06 	sts	0x0646, r24	; 0x800646 <Coef_deplasare>
     ed4:	90 93 47 06 	sts	0x0647, r25	; 0x800647 <Coef_deplasare+0x1>
     ed8:	a0 93 48 06 	sts	0x0648, r26	; 0x800648 <Coef_deplasare+0x2>
     edc:	b0 93 49 06 	sts	0x0649, r27	; 0x800649 <Coef_deplasare+0x3>
									contor_cifre++;
     ee0:	8a 81       	ldd	r24, Y+2	; 0x02
     ee2:	8f 5f       	subi	r24, 0xFF	; 255
								}
							Receive_R++;
     ee4:	8a 83       	std	Y+2, r24	; 0x02
     ee6:	80 91 18 06 	lds	r24, 0x0618	; 0x800618 <Receive_R>
     eea:	8f 5f       	subi	r24, 0xFF	; 255
     eec:	80 93 18 06 	sts	0x0618, r24	; 0x800618 <Receive_R>
							Receive_C--;
     ef0:	80 91 17 06 	lds	r24, 0x0617	; 0x800617 <Receive_C>
     ef4:	81 50       	subi	r24, 0x01	; 1
     ef6:	80 93 17 06 	sts	0x0617, r24	; 0x800617 <Receive_C>
						}
				}
		while(contor_cifre>0)
     efa:	5f cf       	rjmp	.-322    	; 0xdba <_Z20Parametri_de_intrarev+0x4f8>
     efc:	8a 81       	ldd	r24, Y+2	; 0x02
     efe:	88 23       	and	r24, r24
			{
				Coef_deplasare = Coef_deplasare/10;
     f00:	f1 f0       	breq	.+60     	; 0xf3e <_Z20Parametri_de_intrarev+0x67c>
     f02:	80 91 46 06 	lds	r24, 0x0646	; 0x800646 <Coef_deplasare>
     f06:	90 91 47 06 	lds	r25, 0x0647	; 0x800647 <Coef_deplasare+0x1>
     f0a:	a0 91 48 06 	lds	r26, 0x0648	; 0x800648 <Coef_deplasare+0x2>
     f0e:	b0 91 49 06 	lds	r27, 0x0649	; 0x800649 <Coef_deplasare+0x3>
     f12:	20 e0       	ldi	r18, 0x00	; 0
     f14:	30 e0       	ldi	r19, 0x00	; 0
     f16:	40 e2       	ldi	r20, 0x20	; 32
     f18:	51 e4       	ldi	r21, 0x41	; 65
     f1a:	bc 01       	movw	r22, r24
     f1c:	cd 01       	movw	r24, r26
     f1e:	0e 94 26 12 	call	0x244c	; 0x244c <__divsf3>
     f22:	dc 01       	movw	r26, r24
     f24:	cb 01       	movw	r24, r22
     f26:	80 93 46 06 	sts	0x0646, r24	; 0x800646 <Coef_deplasare>
     f2a:	90 93 47 06 	sts	0x0647, r25	; 0x800647 <Coef_deplasare+0x1>
     f2e:	a0 93 48 06 	sts	0x0648, r26	; 0x800648 <Coef_deplasare+0x2>
     f32:	b0 93 49 06 	sts	0x0649, r27	; 0x800649 <Coef_deplasare+0x3>
				contor_cifre--;
     f36:	8a 81       	ldd	r24, Y+2	; 0x02
     f38:	81 50       	subi	r24, 0x01	; 1
								}
							Receive_R++;
							Receive_C--;
						}
				}
		while(contor_cifre>0)
     f3a:	8a 83       	std	Y+2, r24	; 0x02
			{
				Coef_deplasare = Coef_deplasare/10;
				contor_cifre--;
			}
		Coef_deplasare = Coef_deplasare_parteaintreaga + Coef_deplasare;
     f3c:	df cf       	rjmp	.-66     	; 0xefc <_Z20Parametri_de_intrarev+0x63a>
     f3e:	6f 81       	ldd	r22, Y+7	; 0x07
     f40:	78 85       	ldd	r23, Y+8	; 0x08
     f42:	89 85       	ldd	r24, Y+9	; 0x09
     f44:	9a 85       	ldd	r25, Y+10	; 0x0a
     f46:	0e 94 ba 12 	call	0x2574	; 0x2574 <__floatunsisf>
     f4a:	7b 01       	movw	r14, r22
     f4c:	8c 01       	movw	r16, r24
     f4e:	80 91 46 06 	lds	r24, 0x0646	; 0x800646 <Coef_deplasare>
     f52:	90 91 47 06 	lds	r25, 0x0647	; 0x800647 <Coef_deplasare+0x1>
     f56:	a0 91 48 06 	lds	r26, 0x0648	; 0x800648 <Coef_deplasare+0x2>
     f5a:	b0 91 49 06 	lds	r27, 0x0649	; 0x800649 <Coef_deplasare+0x3>
     f5e:	9c 01       	movw	r18, r24
     f60:	ad 01       	movw	r20, r26
     f62:	c8 01       	movw	r24, r16
     f64:	b7 01       	movw	r22, r14
     f66:	0e 94 ab 11 	call	0x2356	; 0x2356 <__addsf3>
     f6a:	dc 01       	movw	r26, r24
     f6c:	cb 01       	movw	r24, r22
     f6e:	80 93 46 06 	sts	0x0646, r24	; 0x800646 <Coef_deplasare>
     f72:	90 93 47 06 	sts	0x0647, r25	; 0x800647 <Coef_deplasare+0x1>
     f76:	a0 93 48 06 	sts	0x0648, r26	; 0x800648 <Coef_deplasare+0x2>
     f7a:	b0 93 49 06 	sts	0x0649, r27	; 0x800649 <Coef_deplasare+0x3>
		fanion_asteapta_raspuns=0;
     f7e:	10 92 19 06 	sts	0x0619, r1	; 0x800619 <fanion_asteapta_raspuns>
		sprintf(Transmite_buf, "Coeficientul de deplasare este %.6f \n", Coef_deplasare);
     f82:	80 91 46 06 	lds	r24, 0x0646	; 0x800646 <Coef_deplasare>
     f86:	90 91 47 06 	lds	r25, 0x0647	; 0x800647 <Coef_deplasare+0x1>
     f8a:	a0 91 48 06 	lds	r26, 0x0648	; 0x800648 <Coef_deplasare+0x2>
     f8e:	b0 91 49 06 	lds	r27, 0x0649	; 0x800649 <Coef_deplasare+0x3>
     f92:	2b 2f       	mov	r18, r27
     f94:	2f 93       	push	r18
     f96:	2a 2f       	mov	r18, r26
     f98:	2f 93       	push	r18
     f9a:	29 2f       	mov	r18, r25
     f9c:	2f 93       	push	r18
     f9e:	8f 93       	push	r24
     fa0:	83 ec       	ldi	r24, 0xC3	; 195
     fa2:	92 e0       	ldi	r25, 0x02	; 2
     fa4:	89 2f       	mov	r24, r25
     fa6:	8f 93       	push	r24
     fa8:	83 ec       	ldi	r24, 0xC3	; 195
     faa:	92 e0       	ldi	r25, 0x02	; 2
     fac:	8f 93       	push	r24
     fae:	86 e1       	ldi	r24, 0x16	; 22
     fb0:	95 e0       	ldi	r25, 0x05	; 5
     fb2:	89 2f       	mov	r24, r25
     fb4:	8f 93       	push	r24
     fb6:	86 e1       	ldi	r24, 0x16	; 22
     fb8:	95 e0       	ldi	r25, 0x05	; 5
     fba:	8f 93       	push	r24
     fbc:	0e 94 e8 18 	call	0x31d0	; 0x31d0 <sprintf>
     fc0:	8d b7       	in	r24, 0x3d	; 61
     fc2:	9e b7       	in	r25, 0x3e	; 62
     fc4:	08 96       	adiw	r24, 0x08	; 8
     fc6:	0f b6       	in	r0, 0x3f	; 63
     fc8:	f8 94       	cli
     fca:	de bf       	out	0x3e, r29	; 62
		USART_putstring_hardware(Transmite_buf);
     fcc:	0f be       	out	0x3f, r0	; 63
     fce:	cd bf       	out	0x3d, r28	; 61
     fd0:	86 e1       	ldi	r24, 0x16	; 22
     fd2:	95 e0       	ldi	r25, 0x05	; 5
		
		
		flag=0;
     fd4:	57 dc       	rcall	.-1874   	; 0x884 <_Z24USART_putstring_hardwarePc>
		contor_cifre=0;
     fd6:	19 82       	std	Y+1, r1	; 0x01
		unsigned long int Viteza_parteaintreaga=0;
     fd8:	1a 82       	std	Y+2, r1	; 0x02
     fda:	1b 86       	std	Y+11, r1	; 0x0b
     fdc:	1c 86       	std	Y+12, r1	; 0x0c
     fde:	1d 86       	std	Y+13, r1	; 0x0d
		sprintf(Transmite_buf, "Viteza, nr de bobinari pe secunda?\n");
     fe0:	1e 86       	std	Y+14, r1	; 0x0e
     fe2:	84 e2       	ldi	r24, 0x24	; 36
     fe4:	e9 ee       	ldi	r30, 0xE9	; 233
     fe6:	f2 e0       	ldi	r31, 0x02	; 2
     fe8:	a6 e1       	ldi	r26, 0x16	; 22
     fea:	b5 e0       	ldi	r27, 0x05	; 5
     fec:	01 90       	ld	r0, Z+
     fee:	0d 92       	st	X+, r0
		USART_putstring_hardware(Transmite_buf);
     ff0:	8a 95       	dec	r24
     ff2:	e1 f7       	brne	.-8      	; 0xfec <_Z20Parametri_de_intrarev+0x72a>
     ff4:	86 e1       	ldi	r24, 0x16	; 22
     ff6:	95 e0       	ldi	r25, 0x05	; 5
		while(fanion_asteapta_raspuns==0)
     ff8:	45 dc       	rcall	.-1910   	; 0x884 <_Z24USART_putstring_hardwarePc>
     ffa:	90 91 19 06 	lds	r25, 0x0619	; 0x800619 <fanion_asteapta_raspuns>
     ffe:	81 e0       	ldi	r24, 0x01	; 1
    1000:	99 23       	and	r25, r25
    1002:	09 f0       	breq	.+2      	; 0x1006 <_Z20Parametri_de_intrarev+0x744>
    1004:	80 e0       	ldi	r24, 0x00	; 0
    1006:	88 23       	and	r24, r24
    1008:	09 f4       	brne	.+2      	; 0x100c <_Z20Parametri_de_intrarev+0x74a>
		{
			while(Receive_C>0)
    100a:	a1 c0       	rjmp	.+322    	; 0x114e <_Z20Parametri_de_intrarev+0x88c>
    100c:	90 91 17 06 	lds	r25, 0x0617	; 0x800617 <Receive_C>
    1010:	81 e0       	ldi	r24, 0x01	; 1
    1012:	99 23       	and	r25, r25
    1014:	09 f4       	brne	.+2      	; 0x1018 <_Z20Parametri_de_intrarev+0x756>
    1016:	80 e0       	ldi	r24, 0x00	; 0
    1018:	88 23       	and	r24, r24
				{
					if(Receive_buf[Receive_R] == '.')
    101a:	79 f3       	breq	.-34     	; 0xffa <_Z20Parametri_de_intrarev+0x738>
    101c:	80 91 18 06 	lds	r24, 0x0618	; 0x800618 <Receive_R>
    1020:	88 2f       	mov	r24, r24
    1022:	90 e0       	ldi	r25, 0x00	; 0
    1024:	8a 5e       	subi	r24, 0xEA	; 234
    1026:	9b 4f       	sbci	r25, 0xFB	; 251
    1028:	fc 01       	movw	r30, r24
    102a:	90 81       	ld	r25, Z
    102c:	81 e0       	ldi	r24, 0x01	; 1
    102e:	9e 32       	cpi	r25, 0x2E	; 46
    1030:	09 f0       	breq	.+2      	; 0x1034 <_Z20Parametri_de_intrarev+0x772>
    1032:	80 e0       	ldi	r24, 0x00	; 0
    1034:	88 23       	and	r24, r24
						flag=1;
    1036:	11 f0       	breq	.+4      	; 0x103c <_Z20Parametri_de_intrarev+0x77a>
    1038:	81 e0       	ldi	r24, 0x01	; 1
				
					if(flag==0)
    103a:	89 83       	std	Y+1, r24	; 0x01
    103c:	89 81       	ldd	r24, Y+1	; 0x01
    103e:	88 23       	and	r24, r24
						Viteza_parteaintreaga = ((Viteza_parteaintreaga*10) + (Receive_buf[Receive_R]-0x30));
    1040:	69 f5       	brne	.+90     	; 0x109c <_Z20Parametri_de_intrarev+0x7da>
    1042:	8b 85       	ldd	r24, Y+11	; 0x0b
    1044:	9c 85       	ldd	r25, Y+12	; 0x0c
    1046:	ad 85       	ldd	r26, Y+13	; 0x0d
    1048:	be 85       	ldd	r27, Y+14	; 0x0e
    104a:	88 0f       	add	r24, r24
    104c:	99 1f       	adc	r25, r25
    104e:	aa 1f       	adc	r26, r26
    1050:	bb 1f       	adc	r27, r27
    1052:	9c 01       	movw	r18, r24
    1054:	ad 01       	movw	r20, r26
    1056:	22 0f       	add	r18, r18
    1058:	33 1f       	adc	r19, r19
    105a:	44 1f       	adc	r20, r20
    105c:	55 1f       	adc	r21, r21
    105e:	22 0f       	add	r18, r18
    1060:	33 1f       	adc	r19, r19
    1062:	44 1f       	adc	r20, r20
    1064:	55 1f       	adc	r21, r21
    1066:	28 0f       	add	r18, r24
    1068:	39 1f       	adc	r19, r25
    106a:	4a 1f       	adc	r20, r26
    106c:	5b 1f       	adc	r21, r27
    106e:	80 91 18 06 	lds	r24, 0x0618	; 0x800618 <Receive_R>
    1072:	88 2f       	mov	r24, r24
    1074:	90 e0       	ldi	r25, 0x00	; 0
    1076:	8a 5e       	subi	r24, 0xEA	; 234
    1078:	9b 4f       	sbci	r25, 0xFB	; 251
    107a:	fc 01       	movw	r30, r24
    107c:	80 81       	ld	r24, Z
    107e:	88 2f       	mov	r24, r24
    1080:	90 e0       	ldi	r25, 0x00	; 0
    1082:	c0 97       	sbiw	r24, 0x30	; 48
    1084:	09 2e       	mov	r0, r25
    1086:	00 0c       	add	r0, r0
    1088:	aa 0b       	sbc	r26, r26
    108a:	bb 0b       	sbc	r27, r27
    108c:	82 0f       	add	r24, r18
    108e:	93 1f       	adc	r25, r19
    1090:	a4 1f       	adc	r26, r20
    1092:	b5 1f       	adc	r27, r21
    1094:	8b 87       	std	Y+11, r24	; 0x0b
    1096:	9c 87       	std	Y+12, r25	; 0x0c
    1098:	ad 87       	std	Y+13, r26	; 0x0d
				
					if(Receive_buf[Receive_R] != '.' && flag==1)
    109a:	be 87       	std	Y+14, r27	; 0x0e
    109c:	80 91 18 06 	lds	r24, 0x0618	; 0x800618 <Receive_R>
    10a0:	88 2f       	mov	r24, r24
    10a2:	90 e0       	ldi	r25, 0x00	; 0
    10a4:	8a 5e       	subi	r24, 0xEA	; 234
    10a6:	9b 4f       	sbci	r25, 0xFB	; 251
    10a8:	fc 01       	movw	r30, r24
    10aa:	80 81       	ld	r24, Z
    10ac:	8e 32       	cpi	r24, 0x2E	; 46
    10ae:	29 f0       	breq	.+10     	; 0x10ba <_Z20Parametri_de_intrarev+0x7f8>
    10b0:	89 81       	ldd	r24, Y+1	; 0x01
    10b2:	81 30       	cpi	r24, 0x01	; 1
    10b4:	11 f4       	brne	.+4      	; 0x10ba <_Z20Parametri_de_intrarev+0x7f8>
    10b6:	81 e0       	ldi	r24, 0x01	; 1
    10b8:	01 c0       	rjmp	.+2      	; 0x10bc <_Z20Parametri_de_intrarev+0x7fa>
    10ba:	80 e0       	ldi	r24, 0x00	; 0
    10bc:	88 23       	and	r24, r24
						{
							Viteza = ((Viteza*10) + (Receive_buf[Receive_R]-0x30));
    10be:	e1 f1       	breq	.+120    	; 0x1138 <_Z20Parametri_de_intrarev+0x876>
    10c0:	80 91 4a 06 	lds	r24, 0x064A	; 0x80064a <Viteza>
    10c4:	90 91 4b 06 	lds	r25, 0x064B	; 0x80064b <Viteza+0x1>
    10c8:	a0 91 4c 06 	lds	r26, 0x064C	; 0x80064c <Viteza+0x2>
    10cc:	b0 91 4d 06 	lds	r27, 0x064D	; 0x80064d <Viteza+0x3>
    10d0:	20 e0       	ldi	r18, 0x00	; 0
    10d2:	30 e0       	ldi	r19, 0x00	; 0
    10d4:	40 e2       	ldi	r20, 0x20	; 32
    10d6:	51 e4       	ldi	r21, 0x41	; 65
    10d8:	bc 01       	movw	r22, r24
    10da:	cd 01       	movw	r24, r26
    10dc:	0e 94 b0 13 	call	0x2760	; 0x2760 <__mulsf3>
    10e0:	dc 01       	movw	r26, r24
    10e2:	cb 01       	movw	r24, r22
    10e4:	6c 01       	movw	r12, r24
    10e6:	7d 01       	movw	r14, r26
    10e8:	80 91 18 06 	lds	r24, 0x0618	; 0x800618 <Receive_R>
    10ec:	88 2f       	mov	r24, r24
    10ee:	90 e0       	ldi	r25, 0x00	; 0
    10f0:	8a 5e       	subi	r24, 0xEA	; 234
    10f2:	9b 4f       	sbci	r25, 0xFB	; 251
    10f4:	fc 01       	movw	r30, r24
    10f6:	80 81       	ld	r24, Z
    10f8:	88 2f       	mov	r24, r24
    10fa:	90 e0       	ldi	r25, 0x00	; 0
    10fc:	c0 97       	sbiw	r24, 0x30	; 48
    10fe:	09 2e       	mov	r0, r25
    1100:	00 0c       	add	r0, r0
    1102:	aa 0b       	sbc	r26, r26
    1104:	bb 0b       	sbc	r27, r27
    1106:	bc 01       	movw	r22, r24
    1108:	cd 01       	movw	r24, r26
    110a:	0e 94 bc 12 	call	0x2578	; 0x2578 <__floatsisf>
    110e:	dc 01       	movw	r26, r24
    1110:	cb 01       	movw	r24, r22
    1112:	9c 01       	movw	r18, r24
    1114:	ad 01       	movw	r20, r26
    1116:	c7 01       	movw	r24, r14
    1118:	b6 01       	movw	r22, r12
    111a:	0e 94 ab 11 	call	0x2356	; 0x2356 <__addsf3>
    111e:	dc 01       	movw	r26, r24
    1120:	cb 01       	movw	r24, r22
    1122:	80 93 4a 06 	sts	0x064A, r24	; 0x80064a <Viteza>
    1126:	90 93 4b 06 	sts	0x064B, r25	; 0x80064b <Viteza+0x1>
    112a:	a0 93 4c 06 	sts	0x064C, r26	; 0x80064c <Viteza+0x2>
    112e:	b0 93 4d 06 	sts	0x064D, r27	; 0x80064d <Viteza+0x3>
							contor_cifre++;
    1132:	8a 81       	ldd	r24, Y+2	; 0x02
    1134:	8f 5f       	subi	r24, 0xFF	; 255
						}
					Receive_R++;
    1136:	8a 83       	std	Y+2, r24	; 0x02
    1138:	80 91 18 06 	lds	r24, 0x0618	; 0x800618 <Receive_R>
    113c:	8f 5f       	subi	r24, 0xFF	; 255
    113e:	80 93 18 06 	sts	0x0618, r24	; 0x800618 <Receive_R>
					Receive_C--;
    1142:	80 91 17 06 	lds	r24, 0x0617	; 0x800617 <Receive_C>
    1146:	81 50       	subi	r24, 0x01	; 1
    1148:	80 93 17 06 	sts	0x0617, r24	; 0x800617 <Receive_C>
				}
		}
		while(contor_cifre>0)
    114c:	5f cf       	rjmp	.-322    	; 0x100c <_Z20Parametri_de_intrarev+0x74a>
    114e:	8a 81       	ldd	r24, Y+2	; 0x02
    1150:	88 23       	and	r24, r24
		{
			Viteza = Viteza/10;
    1152:	f1 f0       	breq	.+60     	; 0x1190 <_Z20Parametri_de_intrarev+0x8ce>
    1154:	80 91 4a 06 	lds	r24, 0x064A	; 0x80064a <Viteza>
    1158:	90 91 4b 06 	lds	r25, 0x064B	; 0x80064b <Viteza+0x1>
    115c:	a0 91 4c 06 	lds	r26, 0x064C	; 0x80064c <Viteza+0x2>
    1160:	b0 91 4d 06 	lds	r27, 0x064D	; 0x80064d <Viteza+0x3>
    1164:	20 e0       	ldi	r18, 0x00	; 0
    1166:	30 e0       	ldi	r19, 0x00	; 0
    1168:	40 e2       	ldi	r20, 0x20	; 32
    116a:	51 e4       	ldi	r21, 0x41	; 65
    116c:	bc 01       	movw	r22, r24
    116e:	cd 01       	movw	r24, r26
    1170:	0e 94 26 12 	call	0x244c	; 0x244c <__divsf3>
    1174:	dc 01       	movw	r26, r24
    1176:	cb 01       	movw	r24, r22
    1178:	80 93 4a 06 	sts	0x064A, r24	; 0x80064a <Viteza>
    117c:	90 93 4b 06 	sts	0x064B, r25	; 0x80064b <Viteza+0x1>
    1180:	a0 93 4c 06 	sts	0x064C, r26	; 0x80064c <Viteza+0x2>
    1184:	b0 93 4d 06 	sts	0x064D, r27	; 0x80064d <Viteza+0x3>
			contor_cifre--;
    1188:	8a 81       	ldd	r24, Y+2	; 0x02
    118a:	81 50       	subi	r24, 0x01	; 1
						}
					Receive_R++;
					Receive_C--;
				}
		}
		while(contor_cifre>0)
    118c:	8a 83       	std	Y+2, r24	; 0x02
		{
			Viteza = Viteza/10;
			contor_cifre--;
		}
		Viteza = Viteza_parteaintreaga + Viteza;
    118e:	df cf       	rjmp	.-66     	; 0x114e <_Z20Parametri_de_intrarev+0x88c>
    1190:	6b 85       	ldd	r22, Y+11	; 0x0b
    1192:	7c 85       	ldd	r23, Y+12	; 0x0c
    1194:	8d 85       	ldd	r24, Y+13	; 0x0d
    1196:	9e 85       	ldd	r25, Y+14	; 0x0e
    1198:	0e 94 ba 12 	call	0x2574	; 0x2574 <__floatunsisf>
    119c:	7b 01       	movw	r14, r22
    119e:	8c 01       	movw	r16, r24
    11a0:	80 91 4a 06 	lds	r24, 0x064A	; 0x80064a <Viteza>
    11a4:	90 91 4b 06 	lds	r25, 0x064B	; 0x80064b <Viteza+0x1>
    11a8:	a0 91 4c 06 	lds	r26, 0x064C	; 0x80064c <Viteza+0x2>
    11ac:	b0 91 4d 06 	lds	r27, 0x064D	; 0x80064d <Viteza+0x3>
    11b0:	9c 01       	movw	r18, r24
    11b2:	ad 01       	movw	r20, r26
    11b4:	c8 01       	movw	r24, r16
    11b6:	b7 01       	movw	r22, r14
    11b8:	0e 94 ab 11 	call	0x2356	; 0x2356 <__addsf3>
    11bc:	dc 01       	movw	r26, r24
    11be:	cb 01       	movw	r24, r22
    11c0:	80 93 4a 06 	sts	0x064A, r24	; 0x80064a <Viteza>
    11c4:	90 93 4b 06 	sts	0x064B, r25	; 0x80064b <Viteza+0x1>
    11c8:	a0 93 4c 06 	sts	0x064C, r26	; 0x80064c <Viteza+0x2>
    11cc:	b0 93 4d 06 	sts	0x064D, r27	; 0x80064d <Viteza+0x3>
		fanion_asteapta_raspuns=0;
    11d0:	10 92 19 06 	sts	0x0619, r1	; 0x800619 <fanion_asteapta_raspuns>
		sprintf(Transmite_buf, "Nr de bobinari pe secunda este %.6f mm\n", Viteza);
    11d4:	80 91 4a 06 	lds	r24, 0x064A	; 0x80064a <Viteza>
    11d8:	90 91 4b 06 	lds	r25, 0x064B	; 0x80064b <Viteza+0x1>
    11dc:	a0 91 4c 06 	lds	r26, 0x064C	; 0x80064c <Viteza+0x2>
    11e0:	b0 91 4d 06 	lds	r27, 0x064D	; 0x80064d <Viteza+0x3>
    11e4:	2b 2f       	mov	r18, r27
    11e6:	2f 93       	push	r18
    11e8:	2a 2f       	mov	r18, r26
    11ea:	2f 93       	push	r18
    11ec:	29 2f       	mov	r18, r25
    11ee:	2f 93       	push	r18
    11f0:	8f 93       	push	r24
    11f2:	8d e0       	ldi	r24, 0x0D	; 13
    11f4:	93 e0       	ldi	r25, 0x03	; 3
    11f6:	89 2f       	mov	r24, r25
    11f8:	8f 93       	push	r24
    11fa:	8d e0       	ldi	r24, 0x0D	; 13
    11fc:	93 e0       	ldi	r25, 0x03	; 3
    11fe:	8f 93       	push	r24
    1200:	86 e1       	ldi	r24, 0x16	; 22
    1202:	95 e0       	ldi	r25, 0x05	; 5
    1204:	89 2f       	mov	r24, r25
    1206:	8f 93       	push	r24
    1208:	86 e1       	ldi	r24, 0x16	; 22
    120a:	95 e0       	ldi	r25, 0x05	; 5
    120c:	8f 93       	push	r24
    120e:	0e 94 e8 18 	call	0x31d0	; 0x31d0 <sprintf>
    1212:	8d b7       	in	r24, 0x3d	; 61
    1214:	9e b7       	in	r25, 0x3e	; 62
    1216:	08 96       	adiw	r24, 0x08	; 8
    1218:	0f b6       	in	r0, 0x3f	; 63
    121a:	f8 94       	cli
    121c:	de bf       	out	0x3e, r29	; 62
		USART_putstring_hardware(Transmite_buf);
    121e:	0f be       	out	0x3f, r0	; 63
    1220:	cd bf       	out	0x3d, r28	; 61
    1222:	86 e1       	ldi	r24, 0x16	; 22
    1224:	95 e0       	ldi	r25, 0x05	; 5
}
    1226:	2e db       	rcall	.-2468   	; 0x884 <_Z24USART_putstring_hardwarePc>
    1228:	00 00       	nop
    122a:	2e 96       	adiw	r28, 0x0e	; 14
    122c:	0f b6       	in	r0, 0x3f	; 63
    122e:	f8 94       	cli
    1230:	de bf       	out	0x3e, r29	; 62
    1232:	0f be       	out	0x3f, r0	; 63
    1234:	cd bf       	out	0x3d, r28	; 61
    1236:	df 91       	pop	r29
    1238:	cf 91       	pop	r28
    123a:	1f 91       	pop	r17
    123c:	0f 91       	pop	r16
    123e:	ff 90       	pop	r15
    1240:	ef 90       	pop	r14
    1242:	df 90       	pop	r13
    1244:	cf 90       	pop	r12
    1246:	08 95       	ret

00001248 <main>:

int main(void)
{
    1248:	cf 92       	push	r12
    124a:	df 92       	push	r13
    124c:	ef 92       	push	r14
    124e:	ff 92       	push	r15
    1250:	0f 93       	push	r16
    1252:	1f 93       	push	r17
    1254:	cf 93       	push	r28
    1256:	df 93       	push	r29
    1258:	cd b7       	in	r28, 0x3d	; 61
    125a:	de b7       	in	r29, 0x3e	; 62
    125c:	af 97       	sbiw	r28, 0x2f	; 47
    125e:	0f b6       	in	r0, 0x3f	; 63
    1260:	f8 94       	cli
    1262:	de bf       	out	0x3e, r29	; 62
    1264:	0f be       	out	0x3f, r0	; 63
    1266:	cd bf       	out	0x3d, r28	; 61
    /* Replace with your application code */
	date=eeprom_read_byte(&V1);
    1268:	80 e0       	ldi	r24, 0x00	; 0
    126a:	90 e0       	ldi	r25, 0x00	; 0
    126c:	0e 94 74 19 	call	0x32e8	; 0x32e8 <eeprom_read_byte>
    1270:	80 93 15 04 	sts	0x0415, r24	; 0x800415 <date>
	// Input/Output Ports initialization
	// Port A initialization
	// Function: Bit7=In Bit6=In Bit5=In Bit4=In Bit3=In Bit2=In Bit1=In Bit0=In
	DDRA=(0<<DDA7) | (0<<DDA6) | (0<<DDA5) | (0<<DDA4) | (0<<DDA3) | (0<<DDA2) | (0<<DDA1) | (0<<DDA0);
    1274:	81 e2       	ldi	r24, 0x21	; 33
    1276:	90 e0       	ldi	r25, 0x00	; 0
    1278:	fc 01       	movw	r30, r24
    127a:	10 82       	st	Z, r1
	// State: Bit7=T Bit6=T Bit5=T Bit4=T Bit3=T Bit2=T Bit1=T Bit0=T
	PORTA=(0<<PA7) | (0<<PA6) | (0<<PA5) | (0<<PA4) | (0<<PA3) | (0<<PA2) | (0<<PA1) | (0<<PA0);
    127c:	82 e2       	ldi	r24, 0x22	; 34
    127e:	90 e0       	ldi	r25, 0x00	; 0
    1280:	fc 01       	movw	r30, r24
    1282:	10 82       	st	Z, r1

	// Port B initialization
	// Function: Bit7=Out Bit6=In Bit5=In Bit4=In Bit3=In Bit2=In Bit1=In Bit0=In
	DDRB=(1<<DDB7) | (0<<DDB6) | (0<<DDB5) | (0<<DDB4) | (0<<DDB3) | (0<<DDB2) | (0<<DDB1) | (0<<DDB0);
    1284:	84 e2       	ldi	r24, 0x24	; 36
    1286:	90 e0       	ldi	r25, 0x00	; 0
    1288:	20 e8       	ldi	r18, 0x80	; 128
    128a:	fc 01       	movw	r30, r24
    128c:	20 83       	st	Z, r18
	// State: Bit7=0 Bit6=T Bit5=T Bit4=T Bit3=T Bit2=T Bit1=T Bit0=T
	PORTB=(0<<PB7) | (0<<PB6) | (0<<PB5) | (0<<PB4) | (0<<PB3) | (0<<PB2) | (0<<PB1) | (0<<PB0);
    128e:	85 e2       	ldi	r24, 0x25	; 37
    1290:	90 e0       	ldi	r25, 0x00	; 0
    1292:	fc 01       	movw	r30, r24
    1294:	10 82       	st	Z, r1

	// Port C initialization
	// Function: Bit7=In Bit6=In Bit5=In Bit4=In Bit3=In Bit2=In Bit1=In Bit0=In
	DDRC=(0<<DDC7) | (0<<DDC6) | (0<<DDC5) | (0<<DDC4) | (0<<DDC3) | (0<<DDC2) | (0<<DDC1) | (0<<DDC0);
    1296:	87 e2       	ldi	r24, 0x27	; 39
    1298:	90 e0       	ldi	r25, 0x00	; 0
    129a:	fc 01       	movw	r30, r24
    129c:	10 82       	st	Z, r1
	// State: Bit7=T Bit6=T Bit5=T Bit4=T Bit3=T Bit2=T Bit1=T Bit0=T
	PORTC=(0<<PC7) | (0<<PC6) | (0<<PC5) | (0<<PC4) | (0<<PC3) | (0<<PC2) | (0<<PC1) | (0<<PC0);
    129e:	88 e2       	ldi	r24, 0x28	; 40
    12a0:	90 e0       	ldi	r25, 0x00	; 0
    12a2:	fc 01       	movw	r30, r24
    12a4:	10 82       	st	Z, r1

	// Port D initialization
	// Function: Bit7=Out Bit6=In Bit5=In Bit4=In Bit3=In Bit2=In Bit1=In Bit0=In
	DDRD=(1<<DDD7) | (0<<DDD6) | (0<<DDD5) | (0<<DDD4) | (0<<DDD3) | (0<<DDD2) | (0<<DDD1) | (0<<DDD0);
    12a6:	8a e2       	ldi	r24, 0x2A	; 42
    12a8:	90 e0       	ldi	r25, 0x00	; 0
    12aa:	20 e8       	ldi	r18, 0x80	; 128
    12ac:	fc 01       	movw	r30, r24
    12ae:	20 83       	st	Z, r18
	// State: Bit7=0 Bit6=T Bit5=T Bit4=T Bit3=T Bit2=T Bit1=T Bit0=T
	PORTD=(0<<PD7) | (0<<PD6) | (0<<PD5) | (0<<PD4) | (0<<PD3) | (0<<PD2) | (0<<PD1) | (0<<PD0);
    12b0:	8b e2       	ldi	r24, 0x2B	; 43
    12b2:	90 e0       	ldi	r25, 0x00	; 0
    12b4:	fc 01       	movw	r30, r24
    12b6:	10 82       	st	Z, r1

	// Port E initialization
	// Function: Bit7=In Bit6=In Bit5=In Bit4=In Bit3=In Bit2=In Bit1=Out Bit0=In
	DDRE=(0<<DDE7) | (0<<DDE6) | (0<<DDE5) | (0<<DDE4) | (0<<DDE3) | (0<<DDE2) | (1<<DDE1) | (0<<DDE0);
    12b8:	8d e2       	ldi	r24, 0x2D	; 45
    12ba:	90 e0       	ldi	r25, 0x00	; 0
    12bc:	22 e0       	ldi	r18, 0x02	; 2
    12be:	fc 01       	movw	r30, r24
    12c0:	20 83       	st	Z, r18
	// State: Bit7=T Bit6=T Bit5=T Bit4=T Bit3=T Bit2=T Bit1=0 Bit0=T
	PORTE=(0<<PE7) | (0<<PE6) | (0<<PE5) | (0<<PE4) | (0<<PE3) | (0<<PE2) | (0<<PE1) | (0<<PE0);
    12c2:	8e e2       	ldi	r24, 0x2E	; 46
    12c4:	90 e0       	ldi	r25, 0x00	; 0
    12c6:	fc 01       	movw	r30, r24
    12c8:	10 82       	st	Z, r1

	// Port F initialization
	// Function: Bit7=Out Bit6=Out Bit5=In Bit4=In Bit3=In Bit2=Out Bit1=Out Bit0=Out
	DDRF=(1<<DDF7) | (1<<DDF6) | (0<<DDF5) | (0<<DDF4) | (0<<DDF3) | (1<<DDF2) | (1<<DDF1) | (1<<DDF0);
    12ca:	80 e3       	ldi	r24, 0x30	; 48
    12cc:	90 e0       	ldi	r25, 0x00	; 0
    12ce:	27 ec       	ldi	r18, 0xC7	; 199
    12d0:	fc 01       	movw	r30, r24
    12d2:	20 83       	st	Z, r18
	// State: Bit7=0 Bit6=0 Bit5=T Bit4=T Bit3=T Bit2=0 Bit1=0 Bit0=0
	PORTF=(0<<PF7) | (0<<PF6) | (0<<PF5) | (0<<PF4) | (0<<PF3) | (0<<PF2) | (0<<PF1) | (0<<PF0);
    12d4:	81 e3       	ldi	r24, 0x31	; 49
    12d6:	90 e0       	ldi	r25, 0x00	; 0
    12d8:	fc 01       	movw	r30, r24
    12da:	10 82       	st	Z, r1

	// Port G initialization
	// Function: Bit5=In Bit4=In Bit3=In Bit2=In Bit1=In Bit0=In
	DDRG=(0<<DDG5) | (0<<DDG4) | (0<<DDG3) | (0<<DDG2) | (0<<DDG1) | (0<<DDG0);
    12dc:	83 e3       	ldi	r24, 0x33	; 51
    12de:	90 e0       	ldi	r25, 0x00	; 0
    12e0:	fc 01       	movw	r30, r24
    12e2:	10 82       	st	Z, r1
	// State: Bit5=T Bit4=T Bit3=T Bit2=T Bit1=T Bit0=T
	PORTG=(0<<PG5) | (0<<PG4) | (0<<PG3) | (0<<PG2) | (0<<PG1) | (0<<PG0);
    12e4:	84 e3       	ldi	r24, 0x34	; 52
    12e6:	90 e0       	ldi	r25, 0x00	; 0
    12e8:	fc 01       	movw	r30, r24
    12ea:	10 82       	st	Z, r1

	// Port H initialization
	// Function: Bit7=In Bit6=In Bit5=In Bit4=In Bit3=In Bit2=In Bit1=In Bit0=In
	DDRH=(0<<DDH7) | (0<<DDH6) | (0<<DDH5) | (0<<DDH4) | (0<<DDH3) | (0<<DDH2) | (0<<DDH1) | (0<<DDH0);
    12ec:	81 e0       	ldi	r24, 0x01	; 1
    12ee:	91 e0       	ldi	r25, 0x01	; 1
    12f0:	fc 01       	movw	r30, r24
    12f2:	10 82       	st	Z, r1
	// State: Bit7=T Bit6=T Bit5=T Bit4=T Bit3=T Bit2=T Bit1=T Bit0=T
	PORTH=(0<<PH7) | (0<<PH6) | (0<<PH5) | (0<<PH4) | (0<<PH3) | (0<<PH2) | (0<<PH1) | (0<<PH0);
    12f4:	82 e0       	ldi	r24, 0x02	; 2
    12f6:	91 e0       	ldi	r25, 0x01	; 1
    12f8:	fc 01       	movw	r30, r24
    12fa:	10 82       	st	Z, r1

	// Port J initialization
	// Function: Bit7=In Bit6=In Bit5=In Bit4=In Bit3=In Bit2=In Bit1=In Bit0=In
	DDRJ=(0<<DDJ7) | (0<<DDJ6) | (0<<DDJ5) | (0<<DDJ4) | (0<<DDJ3) | (0<<DDJ2) | (0<<DDJ1) | (0<<DDJ0);
    12fc:	84 e0       	ldi	r24, 0x04	; 4
    12fe:	91 e0       	ldi	r25, 0x01	; 1
    1300:	fc 01       	movw	r30, r24
    1302:	10 82       	st	Z, r1
	// State: Bit7=T Bit6=T Bit5=T Bit4=T Bit3=T Bit2=T Bit1=T Bit0=T
	PORTJ=(0<<PJ7) | (0<<PJ6) | (0<<PJ5) | (0<<PJ4) | (0<<PJ3) | (0<<PJ2) | (0<<PJ1) | (0<<PJ0);
    1304:	85 e0       	ldi	r24, 0x05	; 5
    1306:	91 e0       	ldi	r25, 0x01	; 1
    1308:	fc 01       	movw	r30, r24
    130a:	10 82       	st	Z, r1

	// Port K initialization
	// Function: Bit7=In Bit6=In Bit5=In Bit4=In Bit3=In Bit2=In Bit1=In Bit0=In
	DDRK=(0<<DDK7) | (0<<DDK6) | (0<<DDK5) | (0<<DDK4) | (0<<DDK3) | (0<<DDK2) | (0<<DDK1) | (0<<DDK0);
    130c:	87 e0       	ldi	r24, 0x07	; 7
    130e:	91 e0       	ldi	r25, 0x01	; 1
    1310:	fc 01       	movw	r30, r24
    1312:	10 82       	st	Z, r1
	// State: Bit7=T Bit6=T Bit5=T Bit4=T Bit3=T Bit2=T Bit1=T Bit0=T
	PORTK=(0<<PK7) | (0<<PK6) | (0<<PK5) | (0<<PK4) | (0<<PK3) | (0<<PK2) | (0<<PK1) | (0<<PK0);
    1314:	88 e0       	ldi	r24, 0x08	; 8
    1316:	91 e0       	ldi	r25, 0x01	; 1
    1318:	fc 01       	movw	r30, r24
    131a:	10 82       	st	Z, r1

	// Port L initialization
	// Function: Bit7=In Bit6=In Bit5=In Bit4=In Bit3=In Bit2=In Bit1=In Bit0=In
	DDRL=(0<<DDL7) | (0<<DDL6) | (0<<DDL5) | (0<<DDL4) | (0<<DDL3) | (0<<DDL2) | (0<<DDL1) | (0<<DDL0);
    131c:	8a e0       	ldi	r24, 0x0A	; 10
    131e:	91 e0       	ldi	r25, 0x01	; 1
    1320:	fc 01       	movw	r30, r24
    1322:	10 82       	st	Z, r1
	// State: Bit7=T Bit6=T Bit5=T Bit4=T Bit3=T Bit2=T Bit1=T Bit0=T
	PORTL=(0<<PL7) | (0<<PL6) | (0<<PL5) | (0<<PL4) | (0<<PL3) | (0<<PL2) | (0<<PL1) | (0<<PL0);
    1324:	8b e0       	ldi	r24, 0x0B	; 11
    1326:	91 e0       	ldi	r25, 0x01	; 1
    1328:	fc 01       	movw	r30, r24
    132a:	10 82       	st	Z, r1
	// Clock source: System Clock
	// Clock value: Timer 0 Stopped
	// Mode: Normal top=0xFF
	// OC0A output: Disconnected
	// OC0B output: Disconnected
	TCCR0A=(0<<COM0A1) | (0<<COM0A0) | (0<<COM0B1) | (0<<COM0B0) | (0<<WGM01) | (0<<WGM00);
    132c:	84 e4       	ldi	r24, 0x44	; 68
    132e:	90 e0       	ldi	r25, 0x00	; 0
    1330:	fc 01       	movw	r30, r24
    1332:	10 82       	st	Z, r1
	TCCR0B=(0<<WGM02) | (0<<CS02) | (0<<CS01) | (0<<CS00);
    1334:	85 e4       	ldi	r24, 0x45	; 69
    1336:	90 e0       	ldi	r25, 0x00	; 0
    1338:	fc 01       	movw	r30, r24
    133a:	10 82       	st	Z, r1
	TCNT0=0x00;
    133c:	86 e4       	ldi	r24, 0x46	; 70
    133e:	90 e0       	ldi	r25, 0x00	; 0
    1340:	fc 01       	movw	r30, r24
    1342:	10 82       	st	Z, r1
	OCR0A=0x00;
    1344:	87 e4       	ldi	r24, 0x47	; 71
    1346:	90 e0       	ldi	r25, 0x00	; 0
    1348:	fc 01       	movw	r30, r24
    134a:	10 82       	st	Z, r1
	OCR0B=0x00;
    134c:	88 e4       	ldi	r24, 0x48	; 72
    134e:	90 e0       	ldi	r25, 0x00	; 0
    1350:	fc 01       	movw	r30, r24
    1352:	10 82       	st	Z, r1
	// Timer1 Overflow Interrupt: Off
	// Input Capture Interrupt: Off
	// Compare A Match Interrupt: Off
	// Compare B Match Interrupt: Off
	// Compare C Match Interrupt: Off
	TCCR1A=(0<<COM1A1) | (0<<COM1A0) | (0<<COM1B1) | (0<<COM1B0) | (0<<COM1C1) | (0<<COM1C0) | (0<<WGM11) | (0<<WGM10);
    1354:	80 e8       	ldi	r24, 0x80	; 128
    1356:	90 e0       	ldi	r25, 0x00	; 0
    1358:	fc 01       	movw	r30, r24
    135a:	10 82       	st	Z, r1
	TCCR1B=(0<<ICNC1) | (0<<ICES1) | (0<<WGM13) | (0<<WGM12) | (0<<CS12) | (0<<CS11) | (0<<CS10);
    135c:	81 e8       	ldi	r24, 0x81	; 129
    135e:	90 e0       	ldi	r25, 0x00	; 0
    1360:	fc 01       	movw	r30, r24
    1362:	10 82       	st	Z, r1
	TCNT1H=0x00;
    1364:	85 e8       	ldi	r24, 0x85	; 133
    1366:	90 e0       	ldi	r25, 0x00	; 0
    1368:	fc 01       	movw	r30, r24
    136a:	10 82       	st	Z, r1
	TCNT1L=0x00;
    136c:	84 e8       	ldi	r24, 0x84	; 132
    136e:	90 e0       	ldi	r25, 0x00	; 0
    1370:	fc 01       	movw	r30, r24
    1372:	10 82       	st	Z, r1
	ICR1H=0x00;
    1374:	87 e8       	ldi	r24, 0x87	; 135
    1376:	90 e0       	ldi	r25, 0x00	; 0
    1378:	fc 01       	movw	r30, r24
    137a:	10 82       	st	Z, r1
	ICR1L=0x00;
    137c:	86 e8       	ldi	r24, 0x86	; 134
    137e:	90 e0       	ldi	r25, 0x00	; 0
    1380:	fc 01       	movw	r30, r24
    1382:	10 82       	st	Z, r1
	OCR1AH=0x00;
    1384:	89 e8       	ldi	r24, 0x89	; 137
    1386:	90 e0       	ldi	r25, 0x00	; 0
    1388:	fc 01       	movw	r30, r24
    138a:	10 82       	st	Z, r1
	OCR1AL=0x00;
    138c:	88 e8       	ldi	r24, 0x88	; 136
    138e:	90 e0       	ldi	r25, 0x00	; 0
    1390:	fc 01       	movw	r30, r24
    1392:	10 82       	st	Z, r1
	OCR1BH=0x00;
    1394:	8b e8       	ldi	r24, 0x8B	; 139
    1396:	90 e0       	ldi	r25, 0x00	; 0
    1398:	fc 01       	movw	r30, r24
    139a:	10 82       	st	Z, r1
	OCR1BL=0x00;
    139c:	8a e8       	ldi	r24, 0x8A	; 138
    139e:	90 e0       	ldi	r25, 0x00	; 0
    13a0:	fc 01       	movw	r30, r24
    13a2:	10 82       	st	Z, r1
	OCR1CH=0x00;
    13a4:	8d e8       	ldi	r24, 0x8D	; 141
    13a6:	90 e0       	ldi	r25, 0x00	; 0
    13a8:	fc 01       	movw	r30, r24
    13aa:	10 82       	st	Z, r1
	OCR1CL=0x00;
    13ac:	8c e8       	ldi	r24, 0x8C	; 140
    13ae:	90 e0       	ldi	r25, 0x00	; 0
    13b0:	fc 01       	movw	r30, r24
    13b2:	10 82       	st	Z, r1
	// Clock source: System Clock
	// Clock value: Timer2 Stopped
	// Mode: Normal top=0xFF
	// OC2A output: Disconnected
	// OC2B output: Disconnected
	ASSR=(0<<EXCLK) | (0<<AS2);
    13b4:	86 eb       	ldi	r24, 0xB6	; 182
    13b6:	90 e0       	ldi	r25, 0x00	; 0
    13b8:	fc 01       	movw	r30, r24
    13ba:	10 82       	st	Z, r1
	TCCR2A=(0<<COM2A1) | (0<<COM2A0) | (0<<COM2B1) | (0<<COM2B0) | (0<<WGM21) | (0<<WGM20);
    13bc:	80 eb       	ldi	r24, 0xB0	; 176
    13be:	90 e0       	ldi	r25, 0x00	; 0
    13c0:	fc 01       	movw	r30, r24
    13c2:	10 82       	st	Z, r1
	TCCR2B=(0<<WGM22) | (0<<CS22) | (0<<CS21) | (0<<CS20);
    13c4:	81 eb       	ldi	r24, 0xB1	; 177
    13c6:	90 e0       	ldi	r25, 0x00	; 0
    13c8:	fc 01       	movw	r30, r24
    13ca:	10 82       	st	Z, r1
	TCNT2=0x00;
    13cc:	82 eb       	ldi	r24, 0xB2	; 178
    13ce:	90 e0       	ldi	r25, 0x00	; 0
    13d0:	fc 01       	movw	r30, r24
    13d2:	10 82       	st	Z, r1
	OCR2A=0x00;
    13d4:	83 eb       	ldi	r24, 0xB3	; 179
    13d6:	90 e0       	ldi	r25, 0x00	; 0
    13d8:	fc 01       	movw	r30, r24
    13da:	10 82       	st	Z, r1
	OCR2B=0x00;
    13dc:	84 eb       	ldi	r24, 0xB4	; 180
    13de:	90 e0       	ldi	r25, 0x00	; 0
    13e0:	fc 01       	movw	r30, r24
    13e2:	10 82       	st	Z, r1
	// Timer3 Overflow Interrupt: Off
	// Input Capture Interrupt: Off
	// Compare A Match Interrupt: Off
	// Compare B Match Interrupt: Off
	// Compare C Match Interrupt: Off
	TCCR3A=(0<<COM3A1) | (0<<COM3A0) | (0<<COM3B1) | (0<<COM3B0) | (0<<COM3C1) | (0<<COM3C0) | (0<<WGM31) | (0<<WGM30);
    13e4:	80 e9       	ldi	r24, 0x90	; 144
    13e6:	90 e0       	ldi	r25, 0x00	; 0
    13e8:	fc 01       	movw	r30, r24
    13ea:	10 82       	st	Z, r1
	TCCR3B=(0<<ICNC3) | (0<<ICES3) | (0<<WGM33) | (0<<WGM32) | (0<<CS32) | (0<<CS31) | (0<<CS30);
    13ec:	81 e9       	ldi	r24, 0x91	; 145
    13ee:	90 e0       	ldi	r25, 0x00	; 0
    13f0:	fc 01       	movw	r30, r24
    13f2:	10 82       	st	Z, r1
	TCNT3H=0x00;
    13f4:	85 e9       	ldi	r24, 0x95	; 149
    13f6:	90 e0       	ldi	r25, 0x00	; 0
    13f8:	fc 01       	movw	r30, r24
    13fa:	10 82       	st	Z, r1
	TCNT3L=0x00;
    13fc:	84 e9       	ldi	r24, 0x94	; 148
    13fe:	90 e0       	ldi	r25, 0x00	; 0
    1400:	fc 01       	movw	r30, r24
    1402:	10 82       	st	Z, r1
	ICR3H=0x00;
    1404:	87 e9       	ldi	r24, 0x97	; 151
    1406:	90 e0       	ldi	r25, 0x00	; 0
    1408:	fc 01       	movw	r30, r24
    140a:	10 82       	st	Z, r1
	ICR3L=0x00;
    140c:	86 e9       	ldi	r24, 0x96	; 150
    140e:	90 e0       	ldi	r25, 0x00	; 0
    1410:	fc 01       	movw	r30, r24
    1412:	10 82       	st	Z, r1
	OCR3AH=0x00;
    1414:	89 e9       	ldi	r24, 0x99	; 153
    1416:	90 e0       	ldi	r25, 0x00	; 0
    1418:	fc 01       	movw	r30, r24
    141a:	10 82       	st	Z, r1
	OCR3AL=0x00;
    141c:	88 e9       	ldi	r24, 0x98	; 152
    141e:	90 e0       	ldi	r25, 0x00	; 0
    1420:	fc 01       	movw	r30, r24
    1422:	10 82       	st	Z, r1
	OCR3BH=0x00;
    1424:	8b e9       	ldi	r24, 0x9B	; 155
    1426:	90 e0       	ldi	r25, 0x00	; 0
    1428:	fc 01       	movw	r30, r24
    142a:	10 82       	st	Z, r1
	OCR3BL=0x00;
    142c:	8a e9       	ldi	r24, 0x9A	; 154
    142e:	90 e0       	ldi	r25, 0x00	; 0
    1430:	fc 01       	movw	r30, r24
    1432:	10 82       	st	Z, r1
	OCR3CH=0x00;
    1434:	8d e9       	ldi	r24, 0x9D	; 157
    1436:	90 e0       	ldi	r25, 0x00	; 0
    1438:	fc 01       	movw	r30, r24
    143a:	10 82       	st	Z, r1
	OCR3CL=0x00;
    143c:	8c e9       	ldi	r24, 0x9C	; 156
    143e:	90 e0       	ldi	r25, 0x00	; 0
    1440:	fc 01       	movw	r30, r24
    1442:	10 82       	st	Z, r1
	// Timer4 Overflow Interrupt: Off
	// Input Capture Interrupt: Off
	// Compare A Match Interrupt: Off
	// Compare B Match Interrupt: Off
	// Compare C Match Interrupt: Off
	TCCR4A=(0<<COM4A1) | (0<<COM4A0) | (0<<COM4B1) | (0<<COM4B0) | (0<<COM4C1) | (0<<COM4C0) | (0<<WGM41) | (0<<WGM40);
    1444:	80 ea       	ldi	r24, 0xA0	; 160
    1446:	90 e0       	ldi	r25, 0x00	; 0
    1448:	fc 01       	movw	r30, r24
    144a:	10 82       	st	Z, r1
	TCCR4B=(0<<ICNC4) | (0<<ICES4) | (0<<WGM43) | (0<<WGM42) | (0<<CS42) | (0<<CS41) | (0<<CS40);
    144c:	81 ea       	ldi	r24, 0xA1	; 161
    144e:	90 e0       	ldi	r25, 0x00	; 0
    1450:	fc 01       	movw	r30, r24
    1452:	10 82       	st	Z, r1
	TCNT4H=0x00;
    1454:	85 ea       	ldi	r24, 0xA5	; 165
    1456:	90 e0       	ldi	r25, 0x00	; 0
    1458:	fc 01       	movw	r30, r24
    145a:	10 82       	st	Z, r1
	TCNT4L=0x00;
    145c:	84 ea       	ldi	r24, 0xA4	; 164
    145e:	90 e0       	ldi	r25, 0x00	; 0
    1460:	fc 01       	movw	r30, r24
    1462:	10 82       	st	Z, r1
	ICR4H=0x00;
    1464:	87 ea       	ldi	r24, 0xA7	; 167
    1466:	90 e0       	ldi	r25, 0x00	; 0
    1468:	fc 01       	movw	r30, r24
    146a:	10 82       	st	Z, r1
	ICR4L=0x00;
    146c:	86 ea       	ldi	r24, 0xA6	; 166
    146e:	90 e0       	ldi	r25, 0x00	; 0
    1470:	fc 01       	movw	r30, r24
    1472:	10 82       	st	Z, r1
	OCR4AH=0x00;
    1474:	89 ea       	ldi	r24, 0xA9	; 169
    1476:	90 e0       	ldi	r25, 0x00	; 0
    1478:	fc 01       	movw	r30, r24
    147a:	10 82       	st	Z, r1
	OCR4AL=0x00;
    147c:	88 ea       	ldi	r24, 0xA8	; 168
    147e:	90 e0       	ldi	r25, 0x00	; 0
    1480:	fc 01       	movw	r30, r24
    1482:	10 82       	st	Z, r1
	OCR4BH=0x00;
    1484:	8b ea       	ldi	r24, 0xAB	; 171
    1486:	90 e0       	ldi	r25, 0x00	; 0
    1488:	fc 01       	movw	r30, r24
    148a:	10 82       	st	Z, r1
	OCR4BL=0x00;
    148c:	8a ea       	ldi	r24, 0xAA	; 170
    148e:	90 e0       	ldi	r25, 0x00	; 0
    1490:	fc 01       	movw	r30, r24
    1492:	10 82       	st	Z, r1
	OCR4CH=0x00;
    1494:	8d ea       	ldi	r24, 0xAD	; 173
    1496:	90 e0       	ldi	r25, 0x00	; 0
    1498:	fc 01       	movw	r30, r24
    149a:	10 82       	st	Z, r1
	OCR4CL=0x00;
    149c:	8c ea       	ldi	r24, 0xAC	; 172
    149e:	90 e0       	ldi	r25, 0x00	; 0
    14a0:	fc 01       	movw	r30, r24
    14a2:	10 82       	st	Z, r1
	// Timer5 Overflow Interrupt: Off
	// Input Capture Interrupt: Off
	// Compare A Match Interrupt: Off
	// Compare B Match Interrupt: Off
	// Compare C Match Interrupt: Off
	TCCR5A=(0<<COM5A1) | (0<<COM5A0) | (0<<COM5B1) | (0<<COM5B0) | (0<<COM5C1) | (0<<COM5C0) | (0<<WGM51) | (0<<WGM50);
    14a4:	80 e2       	ldi	r24, 0x20	; 32
    14a6:	91 e0       	ldi	r25, 0x01	; 1
    14a8:	fc 01       	movw	r30, r24
    14aa:	10 82       	st	Z, r1
	TCCR5B=(0<<ICNC5) | (0<<ICES5) | (0<<WGM53) | (0<<WGM52) | (0<<CS52) | (0<<CS51) | (0<<CS50);
    14ac:	81 e2       	ldi	r24, 0x21	; 33
    14ae:	91 e0       	ldi	r25, 0x01	; 1
    14b0:	fc 01       	movw	r30, r24
    14b2:	10 82       	st	Z, r1
	TCNT5H=0x00;
    14b4:	85 e2       	ldi	r24, 0x25	; 37
    14b6:	91 e0       	ldi	r25, 0x01	; 1
    14b8:	fc 01       	movw	r30, r24
    14ba:	10 82       	st	Z, r1
	TCNT5L=0x00;
    14bc:	84 e2       	ldi	r24, 0x24	; 36
    14be:	91 e0       	ldi	r25, 0x01	; 1
    14c0:	fc 01       	movw	r30, r24
    14c2:	10 82       	st	Z, r1
	ICR5H=0x00;
    14c4:	87 e2       	ldi	r24, 0x27	; 39
    14c6:	91 e0       	ldi	r25, 0x01	; 1
    14c8:	fc 01       	movw	r30, r24
    14ca:	10 82       	st	Z, r1
	ICR5L=0x00;
    14cc:	86 e2       	ldi	r24, 0x26	; 38
    14ce:	91 e0       	ldi	r25, 0x01	; 1
    14d0:	fc 01       	movw	r30, r24
    14d2:	10 82       	st	Z, r1
	OCR5AH=0x00;
    14d4:	89 e2       	ldi	r24, 0x29	; 41
    14d6:	91 e0       	ldi	r25, 0x01	; 1
    14d8:	fc 01       	movw	r30, r24
    14da:	10 82       	st	Z, r1
	OCR5AL=0x00;
    14dc:	88 e2       	ldi	r24, 0x28	; 40
    14de:	91 e0       	ldi	r25, 0x01	; 1
    14e0:	fc 01       	movw	r30, r24
    14e2:	10 82       	st	Z, r1
	OCR5BH=0x00;
    14e4:	8b e2       	ldi	r24, 0x2B	; 43
    14e6:	91 e0       	ldi	r25, 0x01	; 1
    14e8:	fc 01       	movw	r30, r24
    14ea:	10 82       	st	Z, r1
	OCR5BL=0x00;
    14ec:	8a e2       	ldi	r24, 0x2A	; 42
    14ee:	91 e0       	ldi	r25, 0x01	; 1
    14f0:	fc 01       	movw	r30, r24
    14f2:	10 82       	st	Z, r1
	OCR5CH=0x00;
    14f4:	8d e2       	ldi	r24, 0x2D	; 45
    14f6:	91 e0       	ldi	r25, 0x01	; 1
    14f8:	fc 01       	movw	r30, r24
    14fa:	10 82       	st	Z, r1
	OCR5CL=0x00;
    14fc:	8c e2       	ldi	r24, 0x2C	; 44
    14fe:	91 e0       	ldi	r25, 0x01	; 1
    1500:	fc 01       	movw	r30, r24
    1502:	10 82       	st	Z, r1

	// Timer/Counter 0 Interrupt(s) initialization
	TIMSK0=(0<<OCIE0B) | (0<<OCIE0A) | (0<<TOIE0);
    1504:	8e e6       	ldi	r24, 0x6E	; 110
    1506:	90 e0       	ldi	r25, 0x00	; 0
    1508:	fc 01       	movw	r30, r24
    150a:	10 82       	st	Z, r1

	// Timer/Counter 1 Interrupt(s) initialization
	TIMSK1=(0<<ICIE1) | (0<<OCIE1C) | (0<<OCIE1B) | (0<<OCIE1A) | (0<<TOIE1);
    150c:	8f e6       	ldi	r24, 0x6F	; 111
    150e:	90 e0       	ldi	r25, 0x00	; 0
    1510:	fc 01       	movw	r30, r24
    1512:	10 82       	st	Z, r1

	// Timer/Counter 2 Interrupt(s) initialization
	TIMSK2=(0<<OCIE2B) | (0<<OCIE2A) | (0<<TOIE2);
    1514:	80 e7       	ldi	r24, 0x70	; 112
    1516:	90 e0       	ldi	r25, 0x00	; 0
    1518:	fc 01       	movw	r30, r24
    151a:	10 82       	st	Z, r1

	// Timer/Counter 3 Interrupt(s) initialization
	TIMSK3=(0<<ICIE3) | (0<<OCIE3C) | (0<<OCIE3B) | (0<<OCIE3A) | (0<<TOIE3);
    151c:	81 e7       	ldi	r24, 0x71	; 113
    151e:	90 e0       	ldi	r25, 0x00	; 0
    1520:	fc 01       	movw	r30, r24
    1522:	10 82       	st	Z, r1

	// Timer/Counter 4 Interrupt(s) initialization
	TIMSK4=(0<<ICIE4) | (0<<OCIE4C) | (0<<OCIE4B) | (0<<OCIE4A) | (0<<TOIE4);
    1524:	82 e7       	ldi	r24, 0x72	; 114
    1526:	90 e0       	ldi	r25, 0x00	; 0
    1528:	fc 01       	movw	r30, r24
    152a:	10 82       	st	Z, r1

	// Timer/Counter 5 Interrupt(s) initialization
	TIMSK5=(0<<ICIE5) | (0<<OCIE5C) | (0<<OCIE5B) | (0<<OCIE5A) | (0<<TOIE5);
    152c:	83 e7       	ldi	r24, 0x73	; 115
    152e:	90 e0       	ldi	r25, 0x00	; 0
    1530:	fc 01       	movw	r30, r24
    1532:	10 82       	st	Z, r1
	// INT3: Off
	// INT4: Off
	// INT5: Off
	// INT6: Off
	// INT7: Off
	EICRA=(0<<ISC31) | (0<<ISC30) | (0<<ISC21) | (0<<ISC20) | (0<<ISC11) | (0<<ISC10) | (0<<ISC01) | (0<<ISC00);
    1534:	89 e6       	ldi	r24, 0x69	; 105
    1536:	90 e0       	ldi	r25, 0x00	; 0
    1538:	fc 01       	movw	r30, r24
    153a:	10 82       	st	Z, r1
	EICRB=(0<<ISC71) | (0<<ISC70) | (0<<ISC61) | (0<<ISC60) | (0<<ISC51) | (0<<ISC50) | (0<<ISC41) | (0<<ISC40);
    153c:	8a e6       	ldi	r24, 0x6A	; 106
    153e:	90 e0       	ldi	r25, 0x00	; 0
    1540:	fc 01       	movw	r30, r24
    1542:	10 82       	st	Z, r1
	EIMSK=(0<<INT7) | (0<<INT6) | (0<<INT5) | (0<<INT4) | (0<<INT3) | (0<<INT2) | (0<<INT1) | (0<<INT0);
    1544:	8d e3       	ldi	r24, 0x3D	; 61
    1546:	90 e0       	ldi	r25, 0x00	; 0
    1548:	fc 01       	movw	r30, r24
    154a:	10 82       	st	Z, r1
	// PCINT19 interrupt: Off
	// PCINT20 interrupt: Off
	// PCINT21 interrupt: Off
	// PCINT22 interrupt: Off
	// PCINT23 interrupt: Off
	PCMSK0=(0<<PCINT7) | (0<<PCINT6) | (0<<PCINT5) | (0<<PCINT4) | (0<<PCINT3) | (0<<PCINT2) | (0<<PCINT1) | (0<<PCINT0);
    154c:	8b e6       	ldi	r24, 0x6B	; 107
    154e:	90 e0       	ldi	r25, 0x00	; 0
    1550:	fc 01       	movw	r30, r24
    1552:	10 82       	st	Z, r1
	PCMSK1=(0<<PCINT15) | (0<<PCINT14) | (0<<PCINT13) | (0<<PCINT12) | (0<<PCINT11) | (0<<PCINT10) | (0<<PCINT9) | (0<<PCINT8);
    1554:	8c e6       	ldi	r24, 0x6C	; 108
    1556:	90 e0       	ldi	r25, 0x00	; 0
    1558:	fc 01       	movw	r30, r24
    155a:	10 82       	st	Z, r1
	PCMSK2=(0<<PCINT23) | (0<<PCINT22) | (0<<PCINT21) | (0<<PCINT20) | (0<<PCINT19) | (0<<PCINT18) | (0<<PCINT17) | (0<<PCINT16);
    155c:	8d e6       	ldi	r24, 0x6D	; 109
    155e:	90 e0       	ldi	r25, 0x00	; 0
    1560:	fc 01       	movw	r30, r24
    1562:	10 82       	st	Z, r1
	PCICR=(0<<PCIE2) | (0<<PCIE1) | (0<<PCIE0);
    1564:	88 e6       	ldi	r24, 0x68	; 104
    1566:	90 e0       	ldi	r25, 0x00	; 0
    1568:	fc 01       	movw	r30, r24
    156a:	10 82       	st	Z, r1
	// Communication Parameters: 8 Data, 1 Stop, No Parity
	// USART0 Receiver: On
	// USART0 Transmitter: On
	// USART0 Mode: Asynchronous
	// USART0 Baud Rate: 9600
	UCSR0A=(0<<RXC0) | (0<<TXC0) | (0<<UDRE0) | (0<<FE0) | (0<<DOR0) | (0<<UPE0) | (0<<U2X0) | (0<<MPCM0);
    156c:	80 ec       	ldi	r24, 0xC0	; 192
    156e:	90 e0       	ldi	r25, 0x00	; 0
    1570:	fc 01       	movw	r30, r24
    1572:	10 82       	st	Z, r1
	UCSR0B=(1<<RXCIE0) | (0<<TXCIE0) | (0<<UDRIE0) | (1<<RXEN0) | (1<<TXEN0) | (0<<UCSZ02) | (0<<RXB80) | (0<<TXB80);
    1574:	81 ec       	ldi	r24, 0xC1	; 193
    1576:	90 e0       	ldi	r25, 0x00	; 0
    1578:	28 e9       	ldi	r18, 0x98	; 152
    157a:	fc 01       	movw	r30, r24
    157c:	20 83       	st	Z, r18
	UCSR0C=(0<<UMSEL01) | (0<<UMSEL00) | (0<<UPM01) | (0<<UPM00) | (0<<USBS0) | (1<<UCSZ01) | (1<<UCSZ00) | (0<<UCPOL0);
    157e:	82 ec       	ldi	r24, 0xC2	; 194
    1580:	90 e0       	ldi	r25, 0x00	; 0
    1582:	26 e0       	ldi	r18, 0x06	; 6
    1584:	fc 01       	movw	r30, r24
    1586:	20 83       	st	Z, r18
	UBRR0H=0x00;
    1588:	85 ec       	ldi	r24, 0xC5	; 197
    158a:	90 e0       	ldi	r25, 0x00	; 0
    158c:	fc 01       	movw	r30, r24
    158e:	10 82       	st	Z, r1
	UBRR0L=0x67;
    1590:	84 ec       	ldi	r24, 0xC4	; 196
    1592:	90 e0       	ldi	r25, 0x00	; 0
    1594:	27 e6       	ldi	r18, 0x67	; 103
    1596:	fc 01       	movw	r30, r24
    1598:	20 83       	st	Z, r18

	// USART1 initialization
	// USART1 disabled
	UCSR1B=(0<<RXCIE1) | (0<<TXCIE1) | (0<<UDRIE1) | (0<<RXEN1) | (0<<TXEN1) | (0<<UCSZ12) | (0<<RXB81) | (0<<TXB81);
    159a:	89 ec       	ldi	r24, 0xC9	; 201
    159c:	90 e0       	ldi	r25, 0x00	; 0
    159e:	fc 01       	movw	r30, r24
    15a0:	10 82       	st	Z, r1

	// USART2 initialization
	// USART2 disabled
	UCSR2B=(0<<RXCIE2) | (0<<TXCIE2) | (0<<UDRIE2) | (0<<RXEN2) | (0<<TXEN2) | (0<<UCSZ22) | (0<<RXB82) | (0<<TXB82);
    15a2:	81 ed       	ldi	r24, 0xD1	; 209
    15a4:	90 e0       	ldi	r25, 0x00	; 0
    15a6:	fc 01       	movw	r30, r24
    15a8:	10 82       	st	Z, r1

	// USART3 initialization
	// USART3 disabled
	UCSR3B=(0<<RXCIE3) | (0<<TXCIE3) | (0<<UDRIE3) | (0<<RXEN3) | (0<<TXEN3) | (0<<UCSZ32) | (0<<RXB83) | (0<<TXB83);
    15aa:	81 e3       	ldi	r24, 0x31	; 49
    15ac:	91 e0       	ldi	r25, 0x01	; 1
    15ae:	fc 01       	movw	r30, r24
    15b0:	10 82       	st	Z, r1
	// Analog Comparator: Off
	// The Analog Comparator's positive input is
	// connected to the AIN0 pin
	// The Analog Comparator's negative input is
	// connected to the AIN1 pin
	ACSR=(1<<ACD) | (0<<ACBG) | (0<<ACO) | (0<<ACI) | (0<<ACIE) | (0<<ACIC) | (0<<ACIS1) | (0<<ACIS0);
    15b2:	80 e5       	ldi	r24, 0x50	; 80
    15b4:	90 e0       	ldi	r25, 0x00	; 0
    15b6:	20 e8       	ldi	r18, 0x80	; 128
    15b8:	fc 01       	movw	r30, r24
    15ba:	20 83       	st	Z, r18
	ADCSRB=(0<<ACME);
    15bc:	8b e7       	ldi	r24, 0x7B	; 123
    15be:	90 e0       	ldi	r25, 0x00	; 0
    15c0:	fc 01       	movw	r30, r24
    15c2:	10 82       	st	Z, r1
	// Digital input buffer on AIN0: On
	// Digital input buffer on AIN1: On
	DIDR1=(0<<AIN0D) | (0<<AIN1D);
    15c4:	8f e7       	ldi	r24, 0x7F	; 127
    15c6:	90 e0       	ldi	r25, 0x00	; 0
    15c8:	fc 01       	movw	r30, r24
    15ca:	10 82       	st	Z, r1

	// ADC initialization
	// ADC disabled
	ADCSRA=(0<<ADEN) | (0<<ADSC) | (0<<ADATE) | (0<<ADIF) | (0<<ADIE) | (0<<ADPS2) | (0<<ADPS1) | (0<<ADPS0);
    15cc:	8a e7       	ldi	r24, 0x7A	; 122
    15ce:	90 e0       	ldi	r25, 0x00	; 0
    15d0:	fc 01       	movw	r30, r24
    15d2:	10 82       	st	Z, r1

	// SPI initialization
	// SPI disabled
	SPCR=(0<<SPIE) | (0<<SPE) | (0<<DORD) | (0<<MSTR) | (0<<CPOL) | (0<<CPHA) | (0<<SPR1) | (0<<SPR0);
    15d4:	8c e4       	ldi	r24, 0x4C	; 76
    15d6:	90 e0       	ldi	r25, 0x00	; 0
    15d8:	fc 01       	movw	r30, r24
    15da:	10 82       	st	Z, r1

	// TWI initialization
	// TWI disabled
	TWCR=(0<<TWEA) | (0<<TWSTA) | (0<<TWSTO) | (0<<TWEN) | (0<<TWIE);
    15dc:	8c eb       	ldi	r24, 0xBC	; 188
    15de:	90 e0       	ldi	r25, 0x00	; 0
    15e0:	fc 01       	movw	r30, r24
    15e2:	10 82       	st	Z, r1
	
	sei();
    15e4:	78 94       	sei
	Disable_stepper(X_EN);	//pentru ca motoarele sa nu consume curent
    15e6:	87 e0       	ldi	r24, 0x07	; 7
	Disable_stepper(Y_EN);
    15e8:	4b d8       	rcall	.-3946   	; 0x680 <_Z15Disable_stepperh>
	
	Parametri_de_intrare();
    15ea:	82 e0       	ldi	r24, 0x02	; 2
    15ec:	49 d8       	rcall	.-3950   	; 0x680 <_Z15Disable_stepperh>
	
	Nr_fire_pestrat = ceil(Lungimea_bobinei/Diametrul_sarmei);
    15ee:	69 d9       	rcall	.-3374   	; 0x8c2 <_Z20Parametri_de_intrarev>
    15f0:	80 91 3a 06 	lds	r24, 0x063A	; 0x80063a <Lungimea_bobinei>
    15f4:	90 91 3b 06 	lds	r25, 0x063B	; 0x80063b <Lungimea_bobinei+0x1>
    15f8:	a0 91 3c 06 	lds	r26, 0x063C	; 0x80063c <Lungimea_bobinei+0x2>
    15fc:	b0 91 3d 06 	lds	r27, 0x063D	; 0x80063d <Lungimea_bobinei+0x3>
    1600:	bc 01       	movw	r22, r24
    1602:	cd 01       	movw	r24, r26
    1604:	b7 d7       	rcall	.+3950   	; 0x2574 <__floatunsisf>
    1606:	7b 01       	movw	r14, r22
    1608:	8c 01       	movw	r16, r24
    160a:	80 91 42 06 	lds	r24, 0x0642	; 0x800642 <Diametrul_sarmei>
    160e:	90 91 43 06 	lds	r25, 0x0643	; 0x800643 <Diametrul_sarmei+0x1>
    1612:	a0 91 44 06 	lds	r26, 0x0644	; 0x800644 <Diametrul_sarmei+0x2>
    1616:	b0 91 45 06 	lds	r27, 0x0645	; 0x800645 <Diametrul_sarmei+0x3>
    161a:	9c 01       	movw	r18, r24
    161c:	ad 01       	movw	r20, r26
    161e:	c8 01       	movw	r24, r16
    1620:	b7 01       	movw	r22, r14
    1622:	14 d7       	rcall	.+3624   	; 0x244c <__divsf3>
    1624:	dc 01       	movw	r26, r24
    1626:	cb 01       	movw	r24, r22
    1628:	bc 01       	movw	r22, r24
    162a:	cd 01       	movw	r24, r26
    162c:	f8 d6       	rcall	.+3568   	; 0x241e <ceil>
    162e:	dc 01       	movw	r26, r24
    1630:	cb 01       	movw	r24, r22
    1632:	bc 01       	movw	r22, r24
    1634:	cd 01       	movw	r24, r26
    1636:	72 d7       	rcall	.+3812   	; 0x251c <__fixunssfsi>
    1638:	dc 01       	movw	r26, r24
    163a:	cb 01       	movw	r24, r22
    163c:	80 93 4e 06 	sts	0x064E, r24	; 0x80064e <Nr_fire_pestrat>
    1640:	90 93 4f 06 	sts	0x064F, r25	; 0x80064f <Nr_fire_pestrat+0x1>
    1644:	a0 93 50 06 	sts	0x0650, r26	; 0x800650 <Nr_fire_pestrat+0x2>
    1648:	b0 93 51 06 	sts	0x0651, r27	; 0x800651 <Nr_fire_pestrat+0x3>
	unsigned long int Nr_fire_pestrat2=0;
    164c:	19 82       	std	Y+1, r1	; 0x01
    164e:	1a 82       	std	Y+2, r1	; 0x02
    1650:	1b 82       	std	Y+3, r1	; 0x03
	Nr_fire_pestrat2=Nr_fire_pestrat;
    1652:	1c 82       	std	Y+4, r1	; 0x04
    1654:	80 91 4e 06 	lds	r24, 0x064E	; 0x80064e <Nr_fire_pestrat>
    1658:	90 91 4f 06 	lds	r25, 0x064F	; 0x80064f <Nr_fire_pestrat+0x1>
    165c:	a0 91 50 06 	lds	r26, 0x0650	; 0x800650 <Nr_fire_pestrat+0x2>
    1660:	b0 91 51 06 	lds	r27, 0x0651	; 0x800651 <Nr_fire_pestrat+0x3>
    1664:	89 83       	std	Y+1, r24	; 0x01
    1666:	9a 83       	std	Y+2, r25	; 0x02
    1668:	ab 83       	std	Y+3, r26	; 0x03
	
	Nr_straturi = ceil((Nr_spire*Diametrul_sarmei)/Lungimea_bobinei);
    166a:	bc 83       	std	Y+4, r27	; 0x04
    166c:	80 91 3e 06 	lds	r24, 0x063E	; 0x80063e <Nr_spire>
    1670:	90 91 3f 06 	lds	r25, 0x063F	; 0x80063f <Nr_spire+0x1>
    1674:	a0 91 40 06 	lds	r26, 0x0640	; 0x800640 <Nr_spire+0x2>
    1678:	b0 91 41 06 	lds	r27, 0x0641	; 0x800641 <Nr_spire+0x3>
    167c:	bc 01       	movw	r22, r24
    167e:	cd 01       	movw	r24, r26
    1680:	79 d7       	rcall	.+3826   	; 0x2574 <__floatunsisf>
    1682:	7b 01       	movw	r14, r22
    1684:	8c 01       	movw	r16, r24
    1686:	80 91 42 06 	lds	r24, 0x0642	; 0x800642 <Diametrul_sarmei>
    168a:	90 91 43 06 	lds	r25, 0x0643	; 0x800643 <Diametrul_sarmei+0x1>
    168e:	a0 91 44 06 	lds	r26, 0x0644	; 0x800644 <Diametrul_sarmei+0x2>
    1692:	b0 91 45 06 	lds	r27, 0x0645	; 0x800645 <Diametrul_sarmei+0x3>
    1696:	9c 01       	movw	r18, r24
    1698:	ad 01       	movw	r20, r26
    169a:	c8 01       	movw	r24, r16
    169c:	b7 01       	movw	r22, r14
    169e:	0e 94 b0 13 	call	0x2760	; 0x2760 <__mulsf3>
    16a2:	dc 01       	movw	r26, r24
    16a4:	cb 01       	movw	r24, r22
    16a6:	6c 01       	movw	r12, r24
    16a8:	7d 01       	movw	r14, r26
    16aa:	80 91 3a 06 	lds	r24, 0x063A	; 0x80063a <Lungimea_bobinei>
    16ae:	90 91 3b 06 	lds	r25, 0x063B	; 0x80063b <Lungimea_bobinei+0x1>
    16b2:	a0 91 3c 06 	lds	r26, 0x063C	; 0x80063c <Lungimea_bobinei+0x2>
    16b6:	b0 91 3d 06 	lds	r27, 0x063D	; 0x80063d <Lungimea_bobinei+0x3>
    16ba:	bc 01       	movw	r22, r24
    16bc:	cd 01       	movw	r24, r26
    16be:	5a d7       	rcall	.+3764   	; 0x2574 <__floatunsisf>
    16c0:	dc 01       	movw	r26, r24
    16c2:	cb 01       	movw	r24, r22
    16c4:	9c 01       	movw	r18, r24
    16c6:	ad 01       	movw	r20, r26
    16c8:	c7 01       	movw	r24, r14
    16ca:	b6 01       	movw	r22, r12
    16cc:	bf d6       	rcall	.+3454   	; 0x244c <__divsf3>
    16ce:	dc 01       	movw	r26, r24
    16d0:	cb 01       	movw	r24, r22
    16d2:	bc 01       	movw	r22, r24
    16d4:	cd 01       	movw	r24, r26
    16d6:	a3 d6       	rcall	.+3398   	; 0x241e <ceil>
    16d8:	dc 01       	movw	r26, r24
    16da:	cb 01       	movw	r24, r22
    16dc:	bc 01       	movw	r22, r24
    16de:	cd 01       	movw	r24, r26
    16e0:	1d d7       	rcall	.+3642   	; 0x251c <__fixunssfsi>
    16e2:	dc 01       	movw	r26, r24
    16e4:	cb 01       	movw	r24, r22
    16e6:	80 93 52 06 	sts	0x0652, r24	; 0x800652 <Nr_straturi>
    16ea:	90 93 53 06 	sts	0x0653, r25	; 0x800653 <Nr_straturi+0x1>
    16ee:	a0 93 54 06 	sts	0x0654, r26	; 0x800654 <Nr_straturi+0x2>
    16f2:	b0 93 55 06 	sts	0x0655, r27	; 0x800655 <Nr_straturi+0x3>
	Nr_impulsuriX=Step_orotatieX*Microstepping_X*2;		//inmultirea la 2 deoarece o perioada de timp impulsul este in 1 si alta perioada in 0, in taimer decrementez si la 0 si la 1, de aceea trebuie numarul de pasi si inmultim la 2 
    16f6:	80 e9       	ldi	r24, 0x90	; 144
    16f8:	91 e0       	ldi	r25, 0x01	; 1
    16fa:	a0 e0       	ldi	r26, 0x00	; 0
    16fc:	b0 e0       	ldi	r27, 0x00	; 0
    16fe:	80 93 32 06 	sts	0x0632, r24	; 0x800632 <Nr_impulsuriX>
    1702:	90 93 33 06 	sts	0x0633, r25	; 0x800633 <Nr_impulsuriX+0x1>
    1706:	a0 93 34 06 	sts	0x0634, r26	; 0x800634 <Nr_impulsuriX+0x2>
    170a:	b0 93 35 06 	sts	0x0635, r27	; 0x800635 <Nr_impulsuriX+0x3>
	Nr_impulsuriY=((Step_orotatieY/Coef_deplasare))*Diametrul_sarmei*Microstepping_Y*2;
    170e:	80 91 46 06 	lds	r24, 0x0646	; 0x800646 <Coef_deplasare>
    1712:	90 91 47 06 	lds	r25, 0x0647	; 0x800647 <Coef_deplasare+0x1>
    1716:	a0 91 48 06 	lds	r26, 0x0648	; 0x800648 <Coef_deplasare+0x2>
    171a:	b0 91 49 06 	lds	r27, 0x0649	; 0x800649 <Coef_deplasare+0x3>
    171e:	9c 01       	movw	r18, r24
    1720:	ad 01       	movw	r20, r26
    1722:	60 e0       	ldi	r22, 0x00	; 0
    1724:	70 e0       	ldi	r23, 0x00	; 0
    1726:	88 e4       	ldi	r24, 0x48	; 72
    1728:	93 e4       	ldi	r25, 0x43	; 67
    172a:	90 d6       	rcall	.+3360   	; 0x244c <__divsf3>
    172c:	dc 01       	movw	r26, r24
    172e:	cb 01       	movw	r24, r22
    1730:	7c 01       	movw	r14, r24
    1732:	8d 01       	movw	r16, r26
    1734:	80 91 42 06 	lds	r24, 0x0642	; 0x800642 <Diametrul_sarmei>
    1738:	90 91 43 06 	lds	r25, 0x0643	; 0x800643 <Diametrul_sarmei+0x1>
    173c:	a0 91 44 06 	lds	r26, 0x0644	; 0x800644 <Diametrul_sarmei+0x2>
    1740:	b0 91 45 06 	lds	r27, 0x0645	; 0x800645 <Diametrul_sarmei+0x3>
    1744:	9c 01       	movw	r18, r24
    1746:	ad 01       	movw	r20, r26
    1748:	c8 01       	movw	r24, r16
    174a:	b7 01       	movw	r22, r14
    174c:	0e 94 b0 13 	call	0x2760	; 0x2760 <__mulsf3>
    1750:	dc 01       	movw	r26, r24
    1752:	cb 01       	movw	r24, r22
    1754:	9c 01       	movw	r18, r24
    1756:	ad 01       	movw	r20, r26
    1758:	bc 01       	movw	r22, r24
    175a:	cd 01       	movw	r24, r26
    175c:	fc d5       	rcall	.+3064   	; 0x2356 <__addsf3>
    175e:	dc 01       	movw	r26, r24
    1760:	cb 01       	movw	r24, r22
    1762:	bc 01       	movw	r22, r24
    1764:	cd 01       	movw	r24, r26
    1766:	da d6       	rcall	.+3508   	; 0x251c <__fixunssfsi>
    1768:	dc 01       	movw	r26, r24
    176a:	cb 01       	movw	r24, r22
    176c:	80 93 36 06 	sts	0x0636, r24	; 0x800636 <Nr_impulsuriY>
    1770:	90 93 37 06 	sts	0x0637, r25	; 0x800637 <Nr_impulsuriY+0x1>
    1774:	a0 93 38 06 	sts	0x0638, r26	; 0x800638 <Nr_impulsuriY+0x2>
	

	Steps_X = Step_orotatieX * Microstepping_X * Viteza * 2; // inmultirea cu 2 deoarece sunt 2 motoare si se necesita timp pentru a bobina un coil apoi a misca, timpul la ambele motoare este egal, pe viitor sar putea face ca motorul Y sa se deplaseze mai rapid deoarece are putine impulsuri iar X mai lent.
    1778:	b0 93 39 06 	sts	0x0639, r27	; 0x800639 <Nr_impulsuriY+0x3>
    177c:	80 91 4a 06 	lds	r24, 0x064A	; 0x80064a <Viteza>
    1780:	90 91 4b 06 	lds	r25, 0x064B	; 0x80064b <Viteza+0x1>
    1784:	a0 91 4c 06 	lds	r26, 0x064C	; 0x80064c <Viteza+0x2>
    1788:	b0 91 4d 06 	lds	r27, 0x064D	; 0x80064d <Viteza+0x3>
    178c:	20 e0       	ldi	r18, 0x00	; 0
    178e:	30 e0       	ldi	r19, 0x00	; 0
    1790:	48 e4       	ldi	r20, 0x48	; 72
    1792:	53 e4       	ldi	r21, 0x43	; 67
    1794:	bc 01       	movw	r22, r24
    1796:	cd 01       	movw	r24, r26
    1798:	e3 d7       	rcall	.+4038   	; 0x2760 <__mulsf3>
    179a:	dc 01       	movw	r26, r24
    179c:	cb 01       	movw	r24, r22
    179e:	9c 01       	movw	r18, r24
    17a0:	ad 01       	movw	r20, r26
    17a2:	bc 01       	movw	r22, r24
    17a4:	cd 01       	movw	r24, r26
    17a6:	d7 d5       	rcall	.+2990   	; 0x2356 <__addsf3>
    17a8:	dc 01       	movw	r26, r24
    17aa:	cb 01       	movw	r24, r22
    17ac:	bc 01       	movw	r22, r24
    17ae:	cd 01       	movw	r24, r26
    17b0:	b5 d6       	rcall	.+3434   	; 0x251c <__fixunssfsi>
    17b2:	dc 01       	movw	r26, r24
    17b4:	cb 01       	movw	r24, r22
    17b6:	80 93 56 06 	sts	0x0656, r24	; 0x800656 <Steps_X>
    17ba:	90 93 57 06 	sts	0x0657, r25	; 0x800657 <Steps_X+0x1>
    17be:	a0 93 58 06 	sts	0x0658, r26	; 0x800658 <Steps_X+0x2>
	Steps_Y = Step_orotatieY * Microstepping_Y * Viteza * 2;
    17c2:	b0 93 59 06 	sts	0x0659, r27	; 0x800659 <Steps_X+0x3>
    17c6:	80 91 4a 06 	lds	r24, 0x064A	; 0x80064a <Viteza>
    17ca:	90 91 4b 06 	lds	r25, 0x064B	; 0x80064b <Viteza+0x1>
    17ce:	a0 91 4c 06 	lds	r26, 0x064C	; 0x80064c <Viteza+0x2>
    17d2:	b0 91 4d 06 	lds	r27, 0x064D	; 0x80064d <Viteza+0x3>
    17d6:	20 e0       	ldi	r18, 0x00	; 0
    17d8:	30 e0       	ldi	r19, 0x00	; 0
    17da:	48 e4       	ldi	r20, 0x48	; 72
    17dc:	53 e4       	ldi	r21, 0x43	; 67
    17de:	bc 01       	movw	r22, r24
    17e0:	cd 01       	movw	r24, r26
    17e2:	be d7       	rcall	.+3964   	; 0x2760 <__mulsf3>
    17e4:	dc 01       	movw	r26, r24
    17e6:	cb 01       	movw	r24, r22
    17e8:	9c 01       	movw	r18, r24
    17ea:	ad 01       	movw	r20, r26
    17ec:	bc 01       	movw	r22, r24
    17ee:	cd 01       	movw	r24, r26
    17f0:	b2 d5       	rcall	.+2916   	; 0x2356 <__addsf3>
    17f2:	dc 01       	movw	r26, r24
    17f4:	cb 01       	movw	r24, r22
    17f6:	bc 01       	movw	r22, r24
    17f8:	cd 01       	movw	r24, r26
    17fa:	90 d6       	rcall	.+3360   	; 0x251c <__fixunssfsi>
    17fc:	dc 01       	movw	r26, r24
    17fe:	cb 01       	movw	r24, r22
    1800:	80 93 5a 06 	sts	0x065A, r24	; 0x80065a <Steps_Y>
    1804:	90 93 5b 06 	sts	0x065B, r25	; 0x80065b <Steps_Y+0x1>
    1808:	a0 93 5c 06 	sts	0x065C, r26	; 0x80065c <Steps_Y+0x2>
    180c:	b0 93 5d 06 	sts	0x065D, r27	; 0x80065d <Steps_Y+0x3>
	
	sprintf(Transmite_buf, "Nr de fire pe strat %lu \n", Nr_fire_pestrat);
    1810:	80 91 4e 06 	lds	r24, 0x064E	; 0x80064e <Nr_fire_pestrat>
    1814:	90 91 4f 06 	lds	r25, 0x064F	; 0x80064f <Nr_fire_pestrat+0x1>
    1818:	a0 91 50 06 	lds	r26, 0x0650	; 0x800650 <Nr_fire_pestrat+0x2>
    181c:	b0 91 51 06 	lds	r27, 0x0651	; 0x800651 <Nr_fire_pestrat+0x3>
    1820:	2b 2f       	mov	r18, r27
    1822:	2f 93       	push	r18
    1824:	2a 2f       	mov	r18, r26
    1826:	2f 93       	push	r18
    1828:	29 2f       	mov	r18, r25
    182a:	2f 93       	push	r18
    182c:	8f 93       	push	r24
    182e:	85 e3       	ldi	r24, 0x35	; 53
    1830:	93 e0       	ldi	r25, 0x03	; 3
    1832:	89 2f       	mov	r24, r25
    1834:	8f 93       	push	r24
    1836:	85 e3       	ldi	r24, 0x35	; 53
    1838:	93 e0       	ldi	r25, 0x03	; 3
    183a:	8f 93       	push	r24
    183c:	86 e1       	ldi	r24, 0x16	; 22
    183e:	95 e0       	ldi	r25, 0x05	; 5
    1840:	89 2f       	mov	r24, r25
    1842:	8f 93       	push	r24
    1844:	86 e1       	ldi	r24, 0x16	; 22
    1846:	95 e0       	ldi	r25, 0x05	; 5
    1848:	8f 93       	push	r24
    184a:	0e 94 e8 18 	call	0x31d0	; 0x31d0 <sprintf>
    184e:	8d b7       	in	r24, 0x3d	; 61
    1850:	9e b7       	in	r25, 0x3e	; 62
    1852:	08 96       	adiw	r24, 0x08	; 8
    1854:	0f b6       	in	r0, 0x3f	; 63
    1856:	f8 94       	cli
    1858:	de bf       	out	0x3e, r29	; 62
	USART_putstring_hardware(Transmite_buf);
    185a:	0f be       	out	0x3f, r0	; 63
    185c:	cd bf       	out	0x3d, r28	; 61
    185e:	86 e1       	ldi	r24, 0x16	; 22
    1860:	95 e0       	ldi	r25, 0x05	; 5
	sprintf(Transmite_buf, "Nr de straturi %lu \n", Nr_straturi);
    1862:	10 d8       	rcall	.-4064   	; 0x884 <_Z24USART_putstring_hardwarePc>
    1864:	80 91 52 06 	lds	r24, 0x0652	; 0x800652 <Nr_straturi>
    1868:	90 91 53 06 	lds	r25, 0x0653	; 0x800653 <Nr_straturi+0x1>
    186c:	a0 91 54 06 	lds	r26, 0x0654	; 0x800654 <Nr_straturi+0x2>
    1870:	b0 91 55 06 	lds	r27, 0x0655	; 0x800655 <Nr_straturi+0x3>
    1874:	2b 2f       	mov	r18, r27
    1876:	2f 93       	push	r18
    1878:	2a 2f       	mov	r18, r26
    187a:	2f 93       	push	r18
    187c:	29 2f       	mov	r18, r25
    187e:	2f 93       	push	r18
    1880:	8f 93       	push	r24
    1882:	8f e4       	ldi	r24, 0x4F	; 79
    1884:	93 e0       	ldi	r25, 0x03	; 3
    1886:	89 2f       	mov	r24, r25
    1888:	8f 93       	push	r24
    188a:	8f e4       	ldi	r24, 0x4F	; 79
    188c:	93 e0       	ldi	r25, 0x03	; 3
    188e:	8f 93       	push	r24
    1890:	86 e1       	ldi	r24, 0x16	; 22
    1892:	95 e0       	ldi	r25, 0x05	; 5
    1894:	89 2f       	mov	r24, r25
    1896:	8f 93       	push	r24
    1898:	86 e1       	ldi	r24, 0x16	; 22
    189a:	95 e0       	ldi	r25, 0x05	; 5
    189c:	8f 93       	push	r24
    189e:	0e 94 e8 18 	call	0x31d0	; 0x31d0 <sprintf>
    18a2:	ed b7       	in	r30, 0x3d	; 61
    18a4:	fe b7       	in	r31, 0x3e	; 62
    18a6:	38 96       	adiw	r30, 0x08	; 8
    18a8:	0f b6       	in	r0, 0x3f	; 63
    18aa:	f8 94       	cli
    18ac:	de bf       	out	0x3e, r29	; 62
    18ae:	0f be       	out	0x3f, r0	; 63
	USART_putstring_hardware(Transmite_buf);
    18b0:	cd bf       	out	0x3d, r28	; 61
    18b2:	86 e1       	ldi	r24, 0x16	; 22
    18b4:	95 e0       	ldi	r25, 0x05	; 5
    18b6:	0e 94 42 04 	call	0x884	; 0x884 <_Z24USART_putstring_hardwarePc>
	sprintf(Transmite_buf, "Nr de impulsuri pe X %lu \n", Nr_impulsuriX);
    18ba:	80 91 32 06 	lds	r24, 0x0632	; 0x800632 <Nr_impulsuriX>
    18be:	90 91 33 06 	lds	r25, 0x0633	; 0x800633 <Nr_impulsuriX+0x1>
    18c2:	a0 91 34 06 	lds	r26, 0x0634	; 0x800634 <Nr_impulsuriX+0x2>
    18c6:	b0 91 35 06 	lds	r27, 0x0635	; 0x800635 <Nr_impulsuriX+0x3>
    18ca:	2b 2f       	mov	r18, r27
    18cc:	2f 93       	push	r18
    18ce:	2a 2f       	mov	r18, r26
    18d0:	2f 93       	push	r18
    18d2:	29 2f       	mov	r18, r25
    18d4:	2f 93       	push	r18
    18d6:	8f 93       	push	r24
    18d8:	84 e6       	ldi	r24, 0x64	; 100
    18da:	93 e0       	ldi	r25, 0x03	; 3
    18dc:	89 2f       	mov	r24, r25
    18de:	8f 93       	push	r24
    18e0:	84 e6       	ldi	r24, 0x64	; 100
    18e2:	93 e0       	ldi	r25, 0x03	; 3
    18e4:	8f 93       	push	r24
    18e6:	86 e1       	ldi	r24, 0x16	; 22
    18e8:	95 e0       	ldi	r25, 0x05	; 5
    18ea:	89 2f       	mov	r24, r25
    18ec:	8f 93       	push	r24
    18ee:	86 e1       	ldi	r24, 0x16	; 22
    18f0:	95 e0       	ldi	r25, 0x05	; 5
    18f2:	8f 93       	push	r24
    18f4:	0e 94 e8 18 	call	0x31d0	; 0x31d0 <sprintf>
    18f8:	8d b7       	in	r24, 0x3d	; 61
    18fa:	9e b7       	in	r25, 0x3e	; 62
    18fc:	08 96       	adiw	r24, 0x08	; 8
    18fe:	0f b6       	in	r0, 0x3f	; 63
    1900:	f8 94       	cli
    1902:	de bf       	out	0x3e, r29	; 62
    1904:	0f be       	out	0x3f, r0	; 63
	USART_putstring_hardware(Transmite_buf);
    1906:	cd bf       	out	0x3d, r28	; 61
    1908:	86 e1       	ldi	r24, 0x16	; 22
    190a:	95 e0       	ldi	r25, 0x05	; 5
    190c:	0e 94 42 04 	call	0x884	; 0x884 <_Z24USART_putstring_hardwarePc>
	sprintf(Transmite_buf, "Nr de impulsuri pe Y %lu \n", Nr_impulsuriY);
    1910:	80 91 36 06 	lds	r24, 0x0636	; 0x800636 <Nr_impulsuriY>
    1914:	90 91 37 06 	lds	r25, 0x0637	; 0x800637 <Nr_impulsuriY+0x1>
    1918:	a0 91 38 06 	lds	r26, 0x0638	; 0x800638 <Nr_impulsuriY+0x2>
    191c:	b0 91 39 06 	lds	r27, 0x0639	; 0x800639 <Nr_impulsuriY+0x3>
    1920:	2b 2f       	mov	r18, r27
    1922:	2f 93       	push	r18
    1924:	2a 2f       	mov	r18, r26
    1926:	2f 93       	push	r18
    1928:	29 2f       	mov	r18, r25
    192a:	2f 93       	push	r18
    192c:	8f 93       	push	r24
    192e:	8f e7       	ldi	r24, 0x7F	; 127
    1930:	93 e0       	ldi	r25, 0x03	; 3
    1932:	89 2f       	mov	r24, r25
    1934:	8f 93       	push	r24
    1936:	8f e7       	ldi	r24, 0x7F	; 127
    1938:	93 e0       	ldi	r25, 0x03	; 3
    193a:	8f 93       	push	r24
    193c:	86 e1       	ldi	r24, 0x16	; 22
    193e:	95 e0       	ldi	r25, 0x05	; 5
    1940:	89 2f       	mov	r24, r25
    1942:	8f 93       	push	r24
    1944:	86 e1       	ldi	r24, 0x16	; 22
    1946:	95 e0       	ldi	r25, 0x05	; 5
    1948:	8f 93       	push	r24
    194a:	0e 94 e8 18 	call	0x31d0	; 0x31d0 <sprintf>
    194e:	ed b7       	in	r30, 0x3d	; 61
    1950:	fe b7       	in	r31, 0x3e	; 62
    1952:	38 96       	adiw	r30, 0x08	; 8
    1954:	0f b6       	in	r0, 0x3f	; 63
    1956:	f8 94       	cli
    1958:	de bf       	out	0x3e, r29	; 62
    195a:	0f be       	out	0x3f, r0	; 63
	USART_putstring_hardware(Transmite_buf);
    195c:	cd bf       	out	0x3d, r28	; 61
    195e:	86 e1       	ldi	r24, 0x16	; 22
    1960:	95 e0       	ldi	r25, 0x05	; 5
    1962:	0e 94 42 04 	call	0x884	; 0x884 <_Z24USART_putstring_hardwarePc>
	sprintf(Transmite_buf, "Nr de impulsuri pe secunda X %lu \n", Steps_X);
    1966:	80 91 56 06 	lds	r24, 0x0656	; 0x800656 <Steps_X>
    196a:	90 91 57 06 	lds	r25, 0x0657	; 0x800657 <Steps_X+0x1>
    196e:	a0 91 58 06 	lds	r26, 0x0658	; 0x800658 <Steps_X+0x2>
    1972:	b0 91 59 06 	lds	r27, 0x0659	; 0x800659 <Steps_X+0x3>
    1976:	2b 2f       	mov	r18, r27
    1978:	2f 93       	push	r18
    197a:	2a 2f       	mov	r18, r26
    197c:	2f 93       	push	r18
    197e:	29 2f       	mov	r18, r25
    1980:	2f 93       	push	r18
    1982:	8f 93       	push	r24
    1984:	8a e9       	ldi	r24, 0x9A	; 154
    1986:	93 e0       	ldi	r25, 0x03	; 3
    1988:	89 2f       	mov	r24, r25
    198a:	8f 93       	push	r24
    198c:	8a e9       	ldi	r24, 0x9A	; 154
    198e:	93 e0       	ldi	r25, 0x03	; 3
    1990:	8f 93       	push	r24
    1992:	86 e1       	ldi	r24, 0x16	; 22
    1994:	95 e0       	ldi	r25, 0x05	; 5
    1996:	89 2f       	mov	r24, r25
    1998:	8f 93       	push	r24
    199a:	86 e1       	ldi	r24, 0x16	; 22
    199c:	95 e0       	ldi	r25, 0x05	; 5
    199e:	8f 93       	push	r24
    19a0:	0e 94 e8 18 	call	0x31d0	; 0x31d0 <sprintf>
    19a4:	8d b7       	in	r24, 0x3d	; 61
    19a6:	9e b7       	in	r25, 0x3e	; 62
    19a8:	08 96       	adiw	r24, 0x08	; 8
    19aa:	0f b6       	in	r0, 0x3f	; 63
    19ac:	f8 94       	cli
    19ae:	de bf       	out	0x3e, r29	; 62
    19b0:	0f be       	out	0x3f, r0	; 63
	USART_putstring_hardware(Transmite_buf);
    19b2:	cd bf       	out	0x3d, r28	; 61
    19b4:	86 e1       	ldi	r24, 0x16	; 22
    19b6:	95 e0       	ldi	r25, 0x05	; 5
    19b8:	0e 94 42 04 	call	0x884	; 0x884 <_Z24USART_putstring_hardwarePc>
	sprintf(Transmite_buf, "Nr de impulsuri pe secunda Y %lu \n", Steps_Y);
    19bc:	80 91 5a 06 	lds	r24, 0x065A	; 0x80065a <Steps_Y>
    19c0:	90 91 5b 06 	lds	r25, 0x065B	; 0x80065b <Steps_Y+0x1>
    19c4:	a0 91 5c 06 	lds	r26, 0x065C	; 0x80065c <Steps_Y+0x2>
    19c8:	b0 91 5d 06 	lds	r27, 0x065D	; 0x80065d <Steps_Y+0x3>
    19cc:	2b 2f       	mov	r18, r27
    19ce:	2f 93       	push	r18
    19d0:	2a 2f       	mov	r18, r26
    19d2:	2f 93       	push	r18
    19d4:	29 2f       	mov	r18, r25
    19d6:	2f 93       	push	r18
    19d8:	8f 93       	push	r24
    19da:	8d eb       	ldi	r24, 0xBD	; 189
    19dc:	93 e0       	ldi	r25, 0x03	; 3
    19de:	89 2f       	mov	r24, r25
    19e0:	8f 93       	push	r24
    19e2:	8d eb       	ldi	r24, 0xBD	; 189
    19e4:	93 e0       	ldi	r25, 0x03	; 3
    19e6:	8f 93       	push	r24
    19e8:	86 e1       	ldi	r24, 0x16	; 22
    19ea:	95 e0       	ldi	r25, 0x05	; 5
    19ec:	89 2f       	mov	r24, r25
    19ee:	8f 93       	push	r24
    19f0:	86 e1       	ldi	r24, 0x16	; 22
    19f2:	95 e0       	ldi	r25, 0x05	; 5
    19f4:	8f 93       	push	r24
    19f6:	0e 94 e8 18 	call	0x31d0	; 0x31d0 <sprintf>
    19fa:	ed b7       	in	r30, 0x3d	; 61
    19fc:	fe b7       	in	r31, 0x3e	; 62
    19fe:	38 96       	adiw	r30, 0x08	; 8
    1a00:	0f b6       	in	r0, 0x3f	; 63
    1a02:	f8 94       	cli
    1a04:	de bf       	out	0x3e, r29	; 62
    1a06:	0f be       	out	0x3f, r0	; 63
	USART_putstring_hardware(Transmite_buf);
    1a08:	cd bf       	out	0x3d, r28	; 61
    1a0a:	86 e1       	ldi	r24, 0x16	; 22
    1a0c:	95 e0       	ldi	r25, 0x05	; 5
    1a0e:	0e 94 42 04 	call	0x884	; 0x884 <_Z24USART_putstring_hardwarePc>
					
					//Enable_stepper(Y_EN);
					///RunSpeed(X_STEP, Left);
				//	RunStep(Y_STEP, RightX, Nr_impulsuriY);
			
			if(fanion_start==0)	
    1a12:	1d 82       	std	Y+5, r1	; 0x05
    1a14:	8d 81       	ldd	r24, Y+5	; 0x05
    1a16:	88 23       	and	r24, r24
    1a18:	09 f0       	breq	.+2      	; 0x1a1c <main+0x7d4>
			{sprintf(Transmite_buf, "Start\n\n");
    1a1a:	ca c1       	rjmp	.+916    	; 0x1db0 <main+0xb68>
    1a1c:	88 e0       	ldi	r24, 0x08	; 8
    1a1e:	e0 ee       	ldi	r30, 0xE0	; 224
    1a20:	f3 e0       	ldi	r31, 0x03	; 3
    1a22:	a6 e1       	ldi	r26, 0x16	; 22
    1a24:	b5 e0       	ldi	r27, 0x05	; 5
    1a26:	01 90       	ld	r0, Z+
    1a28:	0d 92       	st	X+, r0
    1a2a:	8a 95       	dec	r24
			USART_putstring_hardware(Transmite_buf);
    1a2c:	e1 f7       	brne	.-8      	; 0x1a26 <main+0x7de>
    1a2e:	86 e1       	ldi	r24, 0x16	; 22
    1a30:	95 e0       	ldi	r25, 0x05	; 5
    1a32:	0e 94 42 04 	call	0x884	; 0x884 <_Z24USART_putstring_hardwarePc>
			Enable_stepper(X_EN);
    1a36:	87 e0       	ldi	r24, 0x07	; 7
    1a38:	0e 94 07 03 	call	0x60e	; 0x60e <_Z14Enable_stepperh>
			Enable_stepper(Y_EN);
    1a3c:	82 e0       	ldi	r24, 0x02	; 2
    1a3e:	0e 94 07 03 	call	0x60e	; 0x60e <_Z14Enable_stepperh>
			directia=RightY;
    1a42:	10 92 14 04 	sts	0x0414, r1	; 0x800414 <__data_end>
			while(Nr_straturi>0)
    1a46:	80 91 52 06 	lds	r24, 0x0652	; 0x800652 <Nr_straturi>
    1a4a:	90 91 53 06 	lds	r25, 0x0653	; 0x800653 <Nr_straturi+0x1>
    1a4e:	a0 91 54 06 	lds	r26, 0x0654	; 0x800654 <Nr_straturi+0x2>
    1a52:	b0 91 55 06 	lds	r27, 0x0655	; 0x800655 <Nr_straturi+0x3>
    1a56:	89 2b       	or	r24, r25
    1a58:	8a 2b       	or	r24, r26
    1a5a:	8b 2b       	or	r24, r27
    1a5c:	09 f4       	brne	.+2      	; 0x1a60 <main+0x818>
				{
					sprintf(Transmite_buf, "Nr_straturi = %lu!\n", Nr_straturi);
    1a5e:	93 c1       	rjmp	.+806    	; 0x1d86 <main+0xb3e>
    1a60:	80 91 52 06 	lds	r24, 0x0652	; 0x800652 <Nr_straturi>
    1a64:	90 91 53 06 	lds	r25, 0x0653	; 0x800653 <Nr_straturi+0x1>
    1a68:	a0 91 54 06 	lds	r26, 0x0654	; 0x800654 <Nr_straturi+0x2>
    1a6c:	b0 91 55 06 	lds	r27, 0x0655	; 0x800655 <Nr_straturi+0x3>
    1a70:	2b 2f       	mov	r18, r27
    1a72:	2f 93       	push	r18
    1a74:	2a 2f       	mov	r18, r26
    1a76:	2f 93       	push	r18
    1a78:	29 2f       	mov	r18, r25
    1a7a:	2f 93       	push	r18
    1a7c:	8f 93       	push	r24
    1a7e:	88 ee       	ldi	r24, 0xE8	; 232
    1a80:	93 e0       	ldi	r25, 0x03	; 3
    1a82:	89 2f       	mov	r24, r25
    1a84:	8f 93       	push	r24
    1a86:	88 ee       	ldi	r24, 0xE8	; 232
    1a88:	93 e0       	ldi	r25, 0x03	; 3
    1a8a:	8f 93       	push	r24
    1a8c:	86 e1       	ldi	r24, 0x16	; 22
    1a8e:	95 e0       	ldi	r25, 0x05	; 5
    1a90:	89 2f       	mov	r24, r25
    1a92:	8f 93       	push	r24
    1a94:	86 e1       	ldi	r24, 0x16	; 22
    1a96:	95 e0       	ldi	r25, 0x05	; 5
    1a98:	8f 93       	push	r24
    1a9a:	0e 94 e8 18 	call	0x31d0	; 0x31d0 <sprintf>
    1a9e:	8d b7       	in	r24, 0x3d	; 61
    1aa0:	9e b7       	in	r25, 0x3e	; 62
    1aa2:	08 96       	adiw	r24, 0x08	; 8
    1aa4:	0f b6       	in	r0, 0x3f	; 63
    1aa6:	f8 94       	cli
    1aa8:	de bf       	out	0x3e, r29	; 62
    1aaa:	0f be       	out	0x3f, r0	; 63
					USART_putstring_hardware(Transmite_buf);
    1aac:	cd bf       	out	0x3d, r28	; 61
    1aae:	86 e1       	ldi	r24, 0x16	; 22
    1ab0:	95 e0       	ldi	r25, 0x05	; 5
    1ab2:	0e 94 42 04 	call	0x884	; 0x884 <_Z24USART_putstring_hardwarePc>
					while(Nr_fire_pestrat2>0)
    1ab6:	89 81       	ldd	r24, Y+1	; 0x01
    1ab8:	9a 81       	ldd	r25, Y+2	; 0x02
    1aba:	ab 81       	ldd	r26, Y+3	; 0x03
    1abc:	bc 81       	ldd	r27, Y+4	; 0x04
    1abe:	89 2b       	or	r24, r25
    1ac0:	8a 2b       	or	r24, r26
    1ac2:	8b 2b       	or	r24, r27
    1ac4:	09 f4       	brne	.+2      	; 0x1ac8 <main+0x880>
						{
							sprintf(Transmite_buf, "Nr_fire = %lu!\n", Nr_fire_pestrat2);
    1ac6:	35 c1       	rjmp	.+618    	; 0x1d32 <main+0xaea>
    1ac8:	8c 81       	ldd	r24, Y+4	; 0x04
    1aca:	8f 93       	push	r24
    1acc:	8b 81       	ldd	r24, Y+3	; 0x03
    1ace:	8f 93       	push	r24
    1ad0:	8a 81       	ldd	r24, Y+2	; 0x02
    1ad2:	8f 93       	push	r24
    1ad4:	89 81       	ldd	r24, Y+1	; 0x01
    1ad6:	8f 93       	push	r24
    1ad8:	8c ef       	ldi	r24, 0xFC	; 252
    1ada:	93 e0       	ldi	r25, 0x03	; 3
    1adc:	89 2f       	mov	r24, r25
    1ade:	8f 93       	push	r24
    1ae0:	8c ef       	ldi	r24, 0xFC	; 252
    1ae2:	93 e0       	ldi	r25, 0x03	; 3
    1ae4:	8f 93       	push	r24
    1ae6:	86 e1       	ldi	r24, 0x16	; 22
    1ae8:	95 e0       	ldi	r25, 0x05	; 5
    1aea:	89 2f       	mov	r24, r25
    1aec:	8f 93       	push	r24
    1aee:	86 e1       	ldi	r24, 0x16	; 22
    1af0:	95 e0       	ldi	r25, 0x05	; 5
    1af2:	8f 93       	push	r24
    1af4:	0e 94 e8 18 	call	0x31d0	; 0x31d0 <sprintf>
    1af8:	ed b7       	in	r30, 0x3d	; 61
    1afa:	fe b7       	in	r31, 0x3e	; 62
    1afc:	38 96       	adiw	r30, 0x08	; 8
    1afe:	0f b6       	in	r0, 0x3f	; 63
    1b00:	f8 94       	cli
    1b02:	de bf       	out	0x3e, r29	; 62
    1b04:	0f be       	out	0x3f, r0	; 63
							USART_putstring_hardware(Transmite_buf);
    1b06:	cd bf       	out	0x3d, r28	; 61
    1b08:	86 e1       	ldi	r24, 0x16	; 22
    1b0a:	95 e0       	ldi	r25, 0x05	; 5
    1b0c:	0e 94 42 04 	call	0x884	; 0x884 <_Z24USART_putstring_hardwarePc>
							RunStep(X_STEP, RightX, Nr_impulsuriX);
    1b10:	80 91 32 06 	lds	r24, 0x0632	; 0x800632 <Nr_impulsuriX>
    1b14:	90 91 33 06 	lds	r25, 0x0633	; 0x800633 <Nr_impulsuriX+0x1>
    1b18:	a0 91 34 06 	lds	r26, 0x0634	; 0x800634 <Nr_impulsuriX+0x2>
    1b1c:	b0 91 35 06 	lds	r27, 0x0635	; 0x800635 <Nr_impulsuriX+0x3>
    1b20:	9c 01       	movw	r18, r24
    1b22:	ad 01       	movw	r20, r26
    1b24:	60 e0       	ldi	r22, 0x00	; 0
    1b26:	80 e0       	ldi	r24, 0x00	; 0
    1b28:	0e 94 e4 03 	call	0x7c8	; 0x7c8 <_Z7RunStephhm>
							while(Fanion_RunStep_X !=0)
    1b2c:	90 91 30 06 	lds	r25, 0x0630	; 0x800630 <Fanion_RunStep_X>
    1b30:	81 e0       	ldi	r24, 0x01	; 1
    1b32:	99 23       	and	r25, r25
    1b34:	09 f4       	brne	.+2      	; 0x1b38 <main+0x8f0>
    1b36:	80 e0       	ldi	r24, 0x00	; 0
    1b38:	88 23       	and	r24, r24
    1b3a:	09 f0       	breq	.+2      	; 0x1b3e <main+0x8f6>
    1b3c:	f7 cf       	rjmp	.-18     	; 0x1b2c <main+0x8e4>
    1b3e:	80 e0       	ldi	r24, 0x00	; 0
    1b40:	90 e0       	ldi	r25, 0x00	; 0
    1b42:	a0 e8       	ldi	r26, 0x80	; 128
    1b44:	bf e3       	ldi	r27, 0x3F	; 63
    1b46:	8e 87       	std	Y+14, r24	; 0x0e
    1b48:	9f 87       	std	Y+15, r25	; 0x0f

	__builtin_avr_delay_cycles(__ticks_dc);

#else
	uint16_t __ticks;
	__tmp = ((F_CPU) / 4e3) * __ms;
    1b4a:	a8 8b       	std	Y+16, r26	; 0x10
    1b4c:	b9 8b       	std	Y+17, r27	; 0x11
    1b4e:	20 e0       	ldi	r18, 0x00	; 0
    1b50:	30 e0       	ldi	r19, 0x00	; 0
    1b52:	4a e7       	ldi	r20, 0x7A	; 122
    1b54:	55 e4       	ldi	r21, 0x45	; 69
    1b56:	6e 85       	ldd	r22, Y+14	; 0x0e
    1b58:	7f 85       	ldd	r23, Y+15	; 0x0f
    1b5a:	88 89       	ldd	r24, Y+16	; 0x10
    1b5c:	99 89       	ldd	r25, Y+17	; 0x11
    1b5e:	00 d6       	rcall	.+3072   	; 0x2760 <__mulsf3>
    1b60:	dc 01       	movw	r26, r24
    1b62:	cb 01       	movw	r24, r22
    1b64:	8a 8b       	std	Y+18, r24	; 0x12
    1b66:	9b 8b       	std	Y+19, r25	; 0x13
	if (__tmp < 1.0)
    1b68:	ac 8b       	std	Y+20, r26	; 0x14
    1b6a:	bd 8b       	std	Y+21, r27	; 0x15
    1b6c:	20 e0       	ldi	r18, 0x00	; 0
    1b6e:	30 e0       	ldi	r19, 0x00	; 0
    1b70:	40 e8       	ldi	r20, 0x80	; 128
    1b72:	5f e3       	ldi	r21, 0x3F	; 63
    1b74:	6a 89       	ldd	r22, Y+18	; 0x12
    1b76:	7b 89       	ldd	r23, Y+19	; 0x13
    1b78:	8c 89       	ldd	r24, Y+20	; 0x14
    1b7a:	9d 89       	ldd	r25, Y+21	; 0x15
    1b7c:	63 d4       	rcall	.+2246   	; 0x2444 <__cmpsf2>
		__ticks = 1;
    1b7e:	88 23       	and	r24, r24
    1b80:	2c f4       	brge	.+10     	; 0x1b8c <main+0x944>
    1b82:	81 e0       	ldi	r24, 0x01	; 1
    1b84:	90 e0       	ldi	r25, 0x00	; 0
	else if (__tmp > 65535)
    1b86:	9f 8b       	std	Y+23, r25	; 0x17
    1b88:	8e 8b       	std	Y+22, r24	; 0x16
    1b8a:	3a c0       	rjmp	.+116    	; 0x1c00 <main+0x9b8>
    1b8c:	20 e0       	ldi	r18, 0x00	; 0
    1b8e:	3f ef       	ldi	r19, 0xFF	; 255
    1b90:	4f e7       	ldi	r20, 0x7F	; 127
    1b92:	57 e4       	ldi	r21, 0x47	; 71
    1b94:	6a 89       	ldd	r22, Y+18	; 0x12
    1b96:	7b 89       	ldd	r23, Y+19	; 0x13
    1b98:	8c 89       	ldd	r24, Y+20	; 0x14
    1b9a:	9d 89       	ldd	r25, Y+21	; 0x15
	{
		//	__ticks = requested delay in 1/10 ms
		__ticks = (uint16_t) (__ms * 10.0);
    1b9c:	dd d5       	rcall	.+3002   	; 0x2758 <__gesf2>
    1b9e:	18 16       	cp	r1, r24
    1ba0:	34 f5       	brge	.+76     	; 0x1bee <main+0x9a6>
    1ba2:	20 e0       	ldi	r18, 0x00	; 0
    1ba4:	30 e0       	ldi	r19, 0x00	; 0
    1ba6:	40 e2       	ldi	r20, 0x20	; 32
    1ba8:	51 e4       	ldi	r21, 0x41	; 65
    1baa:	6e 85       	ldd	r22, Y+14	; 0x0e
    1bac:	7f 85       	ldd	r23, Y+15	; 0x0f
    1bae:	88 89       	ldd	r24, Y+16	; 0x10
    1bb0:	99 89       	ldd	r25, Y+17	; 0x11
    1bb2:	d6 d5       	rcall	.+2988   	; 0x2760 <__mulsf3>
    1bb4:	dc 01       	movw	r26, r24
    1bb6:	cb 01       	movw	r24, r22
    1bb8:	bc 01       	movw	r22, r24
    1bba:	cd 01       	movw	r24, r26
    1bbc:	af d4       	rcall	.+2398   	; 0x251c <__fixunssfsi>
    1bbe:	dc 01       	movw	r26, r24
    1bc0:	cb 01       	movw	r24, r22
		while(__ticks)
    1bc2:	9f 8b       	std	Y+23, r25	; 0x17
    1bc4:	8e 8b       	std	Y+22, r24	; 0x16
    1bc6:	8e 89       	ldd	r24, Y+22	; 0x16
    1bc8:	9f 89       	ldd	r25, Y+23	; 0x17
    1bca:	89 2b       	or	r24, r25
    1bcc:	19 f1       	breq	.+70     	; 0x1c14 <main+0x9cc>
    1bce:	80 e9       	ldi	r24, 0x90	; 144
	__asm__ volatile (
		"1: sbiw %0,1" "\n\t"
		"brne 1b"
		: "=w" (__count)
		: "0" (__count)
	);
    1bd0:	91 e0       	ldi	r25, 0x01	; 1
    1bd2:	99 8f       	std	Y+25, r25	; 0x19
    1bd4:	88 8f       	std	Y+24, r24	; 0x18
    1bd6:	88 8d       	ldd	r24, Y+24	; 0x18
    1bd8:	99 8d       	ldd	r25, Y+25	; 0x19
    1bda:	01 97       	sbiw	r24, 0x01	; 1
		{
			// wait 1/10 ms
			_delay_loop_2(((F_CPU) / 4e3) / 10);
			__ticks --;
    1bdc:	f1 f7       	brne	.-4      	; 0x1bda <main+0x992>
    1bde:	99 8f       	std	Y+25, r25	; 0x19
    1be0:	88 8f       	std	Y+24, r24	; 0x18
    1be2:	8e 89       	ldd	r24, Y+22	; 0x16
    1be4:	9f 89       	ldd	r25, Y+23	; 0x17
    1be6:	01 97       	sbiw	r24, 0x01	; 1
		}
		return;
	}
	else
		__ticks = (uint16_t)__tmp;
    1be8:	9f 8b       	std	Y+23, r25	; 0x17
    1bea:	8e 8b       	std	Y+22, r24	; 0x16
    1bec:	ec cf       	rjmp	.-40     	; 0x1bc6 <main+0x97e>
    1bee:	6a 89       	ldd	r22, Y+18	; 0x12
    1bf0:	7b 89       	ldd	r23, Y+19	; 0x13
    1bf2:	8c 89       	ldd	r24, Y+20	; 0x14
    1bf4:	9d 89       	ldd	r25, Y+21	; 0x15
    1bf6:	92 d4       	rcall	.+2340   	; 0x251c <__fixunssfsi>
    1bf8:	dc 01       	movw	r26, r24
    1bfa:	cb 01       	movw	r24, r22
    1bfc:	9f 8b       	std	Y+23, r25	; 0x17
    1bfe:	8e 8b       	std	Y+22, r24	; 0x16
    1c00:	8e 89       	ldd	r24, Y+22	; 0x16
    1c02:	9f 89       	ldd	r25, Y+23	; 0x17
    1c04:	9b 8f       	std	Y+27, r25	; 0x1b
    1c06:	8a 8f       	std	Y+26, r24	; 0x1a
    1c08:	8a 8d       	ldd	r24, Y+26	; 0x1a
    1c0a:	9b 8d       	ldd	r25, Y+27	; 0x1b
    1c0c:	01 97       	sbiw	r24, 0x01	; 1
    1c0e:	f1 f7       	brne	.-4      	; 0x1c0c <main+0x9c4>
								{
									//_delay_us(1);
								}
							_delay_ms(1);
								
							RunStep(Y_STEP, directia, Nr_impulsuriY);
    1c10:	9b 8f       	std	Y+27, r25	; 0x1b
    1c12:	8a 8f       	std	Y+26, r24	; 0x1a
    1c14:	80 91 36 06 	lds	r24, 0x0636	; 0x800636 <Nr_impulsuriY>
    1c18:	90 91 37 06 	lds	r25, 0x0637	; 0x800637 <Nr_impulsuriY+0x1>
    1c1c:	a0 91 38 06 	lds	r26, 0x0638	; 0x800638 <Nr_impulsuriY+0x2>
    1c20:	b0 91 39 06 	lds	r27, 0x0639	; 0x800639 <Nr_impulsuriY+0x3>
    1c24:	60 91 14 04 	lds	r22, 0x0414	; 0x800414 <__data_end>
    1c28:	9c 01       	movw	r18, r24
    1c2a:	ad 01       	movw	r20, r26
							while(Fanion_RunStep_Y !=0)
    1c2c:	86 e0       	ldi	r24, 0x06	; 6
    1c2e:	0e 94 e4 03 	call	0x7c8	; 0x7c8 <_Z7RunStephhm>
    1c32:	90 91 31 06 	lds	r25, 0x0631	; 0x800631 <Fanion_RunStep_Y>
    1c36:	81 e0       	ldi	r24, 0x01	; 1
    1c38:	99 23       	and	r25, r25
    1c3a:	09 f4       	brne	.+2      	; 0x1c3e <main+0x9f6>
    1c3c:	80 e0       	ldi	r24, 0x00	; 0
    1c3e:	88 23       	and	r24, r24
    1c40:	09 f0       	breq	.+2      	; 0x1c44 <main+0x9fc>
    1c42:	f7 cf       	rjmp	.-18     	; 0x1c32 <main+0x9ea>
    1c44:	80 e0       	ldi	r24, 0x00	; 0
    1c46:	90 e0       	ldi	r25, 0x00	; 0
    1c48:	a0 e8       	ldi	r26, 0x80	; 128

	__builtin_avr_delay_cycles(__ticks_dc);

#else
	uint16_t __ticks;
	__tmp = ((F_CPU) / 4e3) * __ms;
    1c4a:	bf e3       	ldi	r27, 0x3F	; 63
    1c4c:	8e 83       	std	Y+6, r24	; 0x06
    1c4e:	9f 83       	std	Y+7, r25	; 0x07
    1c50:	a8 87       	std	Y+8, r26	; 0x08
    1c52:	b9 87       	std	Y+9, r27	; 0x09
    1c54:	20 e0       	ldi	r18, 0x00	; 0
    1c56:	30 e0       	ldi	r19, 0x00	; 0
    1c58:	4a e7       	ldi	r20, 0x7A	; 122
    1c5a:	55 e4       	ldi	r21, 0x45	; 69
    1c5c:	6e 81       	ldd	r22, Y+6	; 0x06
    1c5e:	7f 81       	ldd	r23, Y+7	; 0x07
    1c60:	88 85       	ldd	r24, Y+8	; 0x08
    1c62:	99 85       	ldd	r25, Y+9	; 0x09
    1c64:	7d d5       	rcall	.+2810   	; 0x2760 <__mulsf3>
    1c66:	dc 01       	movw	r26, r24
	if (__tmp < 1.0)
    1c68:	cb 01       	movw	r24, r22
    1c6a:	8c 8f       	std	Y+28, r24	; 0x1c
    1c6c:	9d 8f       	std	Y+29, r25	; 0x1d
    1c6e:	ae 8f       	std	Y+30, r26	; 0x1e
    1c70:	bf 8f       	std	Y+31, r27	; 0x1f
    1c72:	20 e0       	ldi	r18, 0x00	; 0
    1c74:	30 e0       	ldi	r19, 0x00	; 0
    1c76:	40 e8       	ldi	r20, 0x80	; 128
    1c78:	5f e3       	ldi	r21, 0x3F	; 63
    1c7a:	6c 8d       	ldd	r22, Y+28	; 0x1c
    1c7c:	7d 8d       	ldd	r23, Y+29	; 0x1d
		__ticks = 1;
    1c7e:	8e 8d       	ldd	r24, Y+30	; 0x1e
    1c80:	9f 8d       	ldd	r25, Y+31	; 0x1f
    1c82:	e0 d3       	rcall	.+1984   	; 0x2444 <__cmpsf2>
    1c84:	88 23       	and	r24, r24
	else if (__tmp > 65535)
    1c86:	2c f4       	brge	.+10     	; 0x1c92 <main+0xa4a>
    1c88:	81 e0       	ldi	r24, 0x01	; 1
    1c8a:	90 e0       	ldi	r25, 0x00	; 0
    1c8c:	99 a3       	std	Y+33, r25	; 0x21
    1c8e:	88 a3       	std	Y+32, r24	; 0x20
    1c90:	3a c0       	rjmp	.+116    	; 0x1d06 <main+0xabe>
    1c92:	20 e0       	ldi	r18, 0x00	; 0
    1c94:	3f ef       	ldi	r19, 0xFF	; 255
    1c96:	4f e7       	ldi	r20, 0x7F	; 127
    1c98:	57 e4       	ldi	r21, 0x47	; 71
    1c9a:	6c 8d       	ldd	r22, Y+28	; 0x1c
    1c9c:	7d 8d       	ldd	r23, Y+29	; 0x1d
	{
		//	__ticks = requested delay in 1/10 ms
		__ticks = (uint16_t) (__ms * 10.0);
    1c9e:	8e 8d       	ldd	r24, Y+30	; 0x1e
    1ca0:	9f 8d       	ldd	r25, Y+31	; 0x1f
    1ca2:	5a d5       	rcall	.+2740   	; 0x2758 <__gesf2>
    1ca4:	18 16       	cp	r1, r24
    1ca6:	34 f5       	brge	.+76     	; 0x1cf4 <main+0xaac>
    1ca8:	20 e0       	ldi	r18, 0x00	; 0
    1caa:	30 e0       	ldi	r19, 0x00	; 0
    1cac:	40 e2       	ldi	r20, 0x20	; 32
    1cae:	51 e4       	ldi	r21, 0x41	; 65
    1cb0:	6e 81       	ldd	r22, Y+6	; 0x06
    1cb2:	7f 81       	ldd	r23, Y+7	; 0x07
    1cb4:	88 85       	ldd	r24, Y+8	; 0x08
    1cb6:	99 85       	ldd	r25, Y+9	; 0x09
    1cb8:	53 d5       	rcall	.+2726   	; 0x2760 <__mulsf3>
    1cba:	dc 01       	movw	r26, r24
    1cbc:	cb 01       	movw	r24, r22
    1cbe:	bc 01       	movw	r22, r24
    1cc0:	cd 01       	movw	r24, r26
    1cc2:	2c d4       	rcall	.+2136   	; 0x251c <__fixunssfsi>
		while(__ticks)
    1cc4:	dc 01       	movw	r26, r24
    1cc6:	cb 01       	movw	r24, r22
    1cc8:	99 a3       	std	Y+33, r25	; 0x21
    1cca:	88 a3       	std	Y+32, r24	; 0x20
    1ccc:	88 a1       	ldd	r24, Y+32	; 0x20
    1cce:	99 a1       	ldd	r25, Y+33	; 0x21
    1cd0:	89 2b       	or	r24, r25
    1cd2:	19 f1       	breq	.+70     	; 0x1d1a <main+0xad2>
    1cd4:	80 e9       	ldi	r24, 0x90	; 144
    1cd6:	91 e0       	ldi	r25, 0x01	; 1
    1cd8:	9b a3       	std	Y+35, r25	; 0x23
    1cda:	8a a3       	std	Y+34, r24	; 0x22
    1cdc:	8a a1       	ldd	r24, Y+34	; 0x22
    1cde:	9b a1       	ldd	r25, Y+35	; 0x23
		{
			// wait 1/10 ms
			_delay_loop_2(((F_CPU) / 4e3) / 10);
			__ticks --;
    1ce0:	01 97       	sbiw	r24, 0x01	; 1
    1ce2:	f1 f7       	brne	.-4      	; 0x1ce0 <main+0xa98>
    1ce4:	9b a3       	std	Y+35, r25	; 0x23
    1ce6:	8a a3       	std	Y+34, r24	; 0x22
    1ce8:	88 a1       	ldd	r24, Y+32	; 0x20
    1cea:	99 a1       	ldd	r25, Y+33	; 0x21
		}
		return;
	}
	else
		__ticks = (uint16_t)__tmp;
    1cec:	01 97       	sbiw	r24, 0x01	; 1
    1cee:	99 a3       	std	Y+33, r25	; 0x21
    1cf0:	88 a3       	std	Y+32, r24	; 0x20
    1cf2:	ec cf       	rjmp	.-40     	; 0x1ccc <main+0xa84>
    1cf4:	6c 8d       	ldd	r22, Y+28	; 0x1c
    1cf6:	7d 8d       	ldd	r23, Y+29	; 0x1d
    1cf8:	8e 8d       	ldd	r24, Y+30	; 0x1e
    1cfa:	9f 8d       	ldd	r25, Y+31	; 0x1f
    1cfc:	0f d4       	rcall	.+2078   	; 0x251c <__fixunssfsi>
    1cfe:	dc 01       	movw	r26, r24
    1d00:	cb 01       	movw	r24, r22
    1d02:	99 a3       	std	Y+33, r25	; 0x21
    1d04:	88 a3       	std	Y+32, r24	; 0x20
    1d06:	88 a1       	ldd	r24, Y+32	; 0x20
    1d08:	99 a1       	ldd	r25, Y+33	; 0x21
    1d0a:	9d a3       	std	Y+37, r25	; 0x25
    1d0c:	8c a3       	std	Y+36, r24	; 0x24
    1d0e:	8c a1       	ldd	r24, Y+36	; 0x24
    1d10:	9d a1       	ldd	r25, Y+37	; 0x25
    1d12:	01 97       	sbiw	r24, 0x01	; 1
								{
									//_delay_us(1);
								}
							_delay_ms(1);
							
							Nr_fire_pestrat2--;
    1d14:	f1 f7       	brne	.-4      	; 0x1d12 <main+0xaca>
    1d16:	9d a3       	std	Y+37, r25	; 0x25
    1d18:	8c a3       	std	Y+36, r24	; 0x24
    1d1a:	89 81       	ldd	r24, Y+1	; 0x01
    1d1c:	9a 81       	ldd	r25, Y+2	; 0x02
    1d1e:	ab 81       	ldd	r26, Y+3	; 0x03
    1d20:	bc 81       	ldd	r27, Y+4	; 0x04
    1d22:	01 97       	sbiw	r24, 0x01	; 1
    1d24:	a1 09       	sbc	r26, r1
    1d26:	b1 09       	sbc	r27, r1
    1d28:	89 83       	std	Y+1, r24	; 0x01
			directia=RightY;
			while(Nr_straturi>0)
				{
					sprintf(Transmite_buf, "Nr_straturi = %lu!\n", Nr_straturi);
					USART_putstring_hardware(Transmite_buf);
					while(Nr_fire_pestrat2>0)
    1d2a:	9a 83       	std	Y+2, r25	; 0x02
							_delay_ms(1);
							
							Nr_fire_pestrat2--;
							//_delay_ms(10);
						}
					if(directia==RightY)
    1d2c:	ab 83       	std	Y+3, r26	; 0x03
    1d2e:	bc 83       	std	Y+4, r27	; 0x04
    1d30:	c2 ce       	rjmp	.-636    	; 0x1ab6 <main+0x86e>
    1d32:	80 91 14 04 	lds	r24, 0x0414	; 0x800414 <__data_end>
						directia=LeftY;
    1d36:	88 23       	and	r24, r24
    1d38:	21 f4       	brne	.+8      	; 0x1d42 <main+0xafa>
    1d3a:	81 e0       	ldi	r24, 0x01	; 1
					else
						directia=RightY;	
    1d3c:	80 93 14 04 	sts	0x0414, r24	; 0x800414 <__data_end>
					Nr_fire_pestrat2=Nr_fire_pestrat;
    1d40:	02 c0       	rjmp	.+4      	; 0x1d46 <main+0xafe>
    1d42:	10 92 14 04 	sts	0x0414, r1	; 0x800414 <__data_end>
    1d46:	80 91 4e 06 	lds	r24, 0x064E	; 0x80064e <Nr_fire_pestrat>
    1d4a:	90 91 4f 06 	lds	r25, 0x064F	; 0x80064f <Nr_fire_pestrat+0x1>
    1d4e:	a0 91 50 06 	lds	r26, 0x0650	; 0x800650 <Nr_fire_pestrat+0x2>
    1d52:	b0 91 51 06 	lds	r27, 0x0651	; 0x800651 <Nr_fire_pestrat+0x3>
    1d56:	89 83       	std	Y+1, r24	; 0x01
					Nr_straturi--;
    1d58:	9a 83       	std	Y+2, r25	; 0x02
    1d5a:	ab 83       	std	Y+3, r26	; 0x03
    1d5c:	bc 83       	std	Y+4, r27	; 0x04
    1d5e:	80 91 52 06 	lds	r24, 0x0652	; 0x800652 <Nr_straturi>
    1d62:	90 91 53 06 	lds	r25, 0x0653	; 0x800653 <Nr_straturi+0x1>
    1d66:	a0 91 54 06 	lds	r26, 0x0654	; 0x800654 <Nr_straturi+0x2>
    1d6a:	b0 91 55 06 	lds	r27, 0x0655	; 0x800655 <Nr_straturi+0x3>
    1d6e:	01 97       	sbiw	r24, 0x01	; 1
    1d70:	a1 09       	sbc	r26, r1
    1d72:	b1 09       	sbc	r27, r1
    1d74:	80 93 52 06 	sts	0x0652, r24	; 0x800652 <Nr_straturi>
    1d78:	90 93 53 06 	sts	0x0653, r25	; 0x800653 <Nr_straturi+0x1>
    1d7c:	a0 93 54 06 	sts	0x0654, r26	; 0x800654 <Nr_straturi+0x2>

				}
			Disable_stepper(X_EN);
    1d80:	b0 93 55 06 	sts	0x0655, r27	; 0x800655 <Nr_straturi+0x3>
    1d84:	60 ce       	rjmp	.-832    	; 0x1a46 <main+0x7fe>
			Disable_stepper(Y_EN);
    1d86:	87 e0       	ldi	r24, 0x07	; 7
    1d88:	0e 94 40 03 	call	0x680	; 0x680 <_Z15Disable_stepperh>
			sprintf(Transmite_buf, "END !\n");
    1d8c:	82 e0       	ldi	r24, 0x02	; 2
    1d8e:	0e 94 40 03 	call	0x680	; 0x680 <_Z15Disable_stepperh>
    1d92:	87 e0       	ldi	r24, 0x07	; 7
    1d94:	ec e0       	ldi	r30, 0x0C	; 12
    1d96:	f4 e0       	ldi	r31, 0x04	; 4
    1d98:	a6 e1       	ldi	r26, 0x16	; 22
			USART_putstring_hardware(Transmite_buf);
    1d9a:	b5 e0       	ldi	r27, 0x05	; 5
    1d9c:	01 90       	ld	r0, Z+
    1d9e:	0d 92       	st	X+, r0
    1da0:	8a 95       	dec	r24
			fanion_start=1;
    1da2:	e1 f7       	brne	.-8      	; 0x1d9c <main+0xb54>
    1da4:	86 e1       	ldi	r24, 0x16	; 22
    1da6:	95 e0       	ldi	r25, 0x05	; 5
    1da8:	0e 94 42 04 	call	0x884	; 0x884 <_Z24USART_putstring_hardwarePc>
    1dac:	81 e0       	ldi	r24, 0x01	; 1
    1dae:	8d 83       	std	Y+5, r24	; 0x05
    1db0:	80 e0       	ldi	r24, 0x00	; 0
    1db2:	90 e0       	ldi	r25, 0x00	; 0

	__builtin_avr_delay_cycles(__ticks_dc);

#else
	uint16_t __ticks;
	__tmp = ((F_CPU) / 4e3) * __ms;
    1db4:	a8 ec       	ldi	r26, 0xC8	; 200
    1db6:	b2 e4       	ldi	r27, 0x42	; 66
    1db8:	8a 87       	std	Y+10, r24	; 0x0a
    1dba:	9b 87       	std	Y+11, r25	; 0x0b
    1dbc:	ac 87       	std	Y+12, r26	; 0x0c
    1dbe:	bd 87       	std	Y+13, r27	; 0x0d
    1dc0:	20 e0       	ldi	r18, 0x00	; 0
    1dc2:	30 e0       	ldi	r19, 0x00	; 0
    1dc4:	4a e7       	ldi	r20, 0x7A	; 122
    1dc6:	55 e4       	ldi	r21, 0x45	; 69
    1dc8:	6a 85       	ldd	r22, Y+10	; 0x0a
    1dca:	7b 85       	ldd	r23, Y+11	; 0x0b
    1dcc:	8c 85       	ldd	r24, Y+12	; 0x0c
    1dce:	9d 85       	ldd	r25, Y+13	; 0x0d
    1dd0:	c7 d4       	rcall	.+2446   	; 0x2760 <__mulsf3>
	if (__tmp < 1.0)
    1dd2:	dc 01       	movw	r26, r24
    1dd4:	cb 01       	movw	r24, r22
    1dd6:	8e a3       	std	Y+38, r24	; 0x26
    1dd8:	9f a3       	std	Y+39, r25	; 0x27
    1dda:	a8 a7       	std	Y+40, r26	; 0x28
    1ddc:	b9 a7       	std	Y+41, r27	; 0x29
    1dde:	20 e0       	ldi	r18, 0x00	; 0
    1de0:	30 e0       	ldi	r19, 0x00	; 0
    1de2:	40 e8       	ldi	r20, 0x80	; 128
    1de4:	5f e3       	ldi	r21, 0x3F	; 63
		__ticks = 1;
    1de6:	6e a1       	ldd	r22, Y+38	; 0x26
    1de8:	7f a1       	ldd	r23, Y+39	; 0x27
    1dea:	88 a5       	ldd	r24, Y+40	; 0x28
    1dec:	99 a5       	ldd	r25, Y+41	; 0x29
    1dee:	2a d3       	rcall	.+1620   	; 0x2444 <__cmpsf2>
	else if (__tmp > 65535)
    1df0:	88 23       	and	r24, r24
    1df2:	2c f4       	brge	.+10     	; 0x1dfe <main+0xbb6>
    1df4:	81 e0       	ldi	r24, 0x01	; 1
    1df6:	90 e0       	ldi	r25, 0x00	; 0
    1df8:	9b a7       	std	Y+43, r25	; 0x2b
    1dfa:	8a a7       	std	Y+42, r24	; 0x2a
    1dfc:	3b c0       	rjmp	.+118    	; 0x1e74 <main+0xc2c>
    1dfe:	20 e0       	ldi	r18, 0x00	; 0
    1e00:	3f ef       	ldi	r19, 0xFF	; 255
    1e02:	4f e7       	ldi	r20, 0x7F	; 127
    1e04:	57 e4       	ldi	r21, 0x47	; 71
    1e06:	6e a1       	ldd	r22, Y+38	; 0x26
	{
		//	__ticks = requested delay in 1/10 ms
		__ticks = (uint16_t) (__ms * 10.0);
    1e08:	7f a1       	ldd	r23, Y+39	; 0x27
    1e0a:	88 a5       	ldd	r24, Y+40	; 0x28
    1e0c:	99 a5       	ldd	r25, Y+41	; 0x29
    1e0e:	a4 d4       	rcall	.+2376   	; 0x2758 <__gesf2>
    1e10:	18 16       	cp	r1, r24
    1e12:	3c f5       	brge	.+78     	; 0x1e62 <main+0xc1a>
    1e14:	20 e0       	ldi	r18, 0x00	; 0
    1e16:	30 e0       	ldi	r19, 0x00	; 0
    1e18:	40 e2       	ldi	r20, 0x20	; 32
    1e1a:	51 e4       	ldi	r21, 0x41	; 65
    1e1c:	6a 85       	ldd	r22, Y+10	; 0x0a
    1e1e:	7b 85       	ldd	r23, Y+11	; 0x0b
    1e20:	8c 85       	ldd	r24, Y+12	; 0x0c
    1e22:	9d 85       	ldd	r25, Y+13	; 0x0d
    1e24:	9d d4       	rcall	.+2362   	; 0x2760 <__mulsf3>
    1e26:	dc 01       	movw	r26, r24
    1e28:	cb 01       	movw	r24, r22
    1e2a:	bc 01       	movw	r22, r24
    1e2c:	cd 01       	movw	r24, r26
		while(__ticks)
    1e2e:	76 d3       	rcall	.+1772   	; 0x251c <__fixunssfsi>
    1e30:	dc 01       	movw	r26, r24
    1e32:	cb 01       	movw	r24, r22
    1e34:	9b a7       	std	Y+43, r25	; 0x2b
    1e36:	8a a7       	std	Y+42, r24	; 0x2a
    1e38:	8a a5       	ldd	r24, Y+42	; 0x2a
    1e3a:	9b a5       	ldd	r25, Y+43	; 0x2b
    1e3c:	89 2b       	or	r24, r25
    1e3e:	09 f4       	brne	.+2      	; 0x1e42 <main+0xbfa>
    1e40:	e9 cd       	rjmp	.-1070   	; 0x1a14 <main+0x7cc>
    1e42:	80 e9       	ldi	r24, 0x90	; 144
    1e44:	91 e0       	ldi	r25, 0x01	; 1
    1e46:	9d a7       	std	Y+45, r25	; 0x2d
    1e48:	8c a7       	std	Y+44, r24	; 0x2c
    1e4a:	8c a5       	ldd	r24, Y+44	; 0x2c
		{
			// wait 1/10 ms
			_delay_loop_2(((F_CPU) / 4e3) / 10);
			__ticks --;
    1e4c:	9d a5       	ldd	r25, Y+45	; 0x2d
    1e4e:	01 97       	sbiw	r24, 0x01	; 1
    1e50:	f1 f7       	brne	.-4      	; 0x1e4e <main+0xc06>
    1e52:	9d a7       	std	Y+45, r25	; 0x2d
    1e54:	8c a7       	std	Y+44, r24	; 0x2c
    1e56:	8a a5       	ldd	r24, Y+42	; 0x2a
		}
		return;
	}
	else
		__ticks = (uint16_t)__tmp;
    1e58:	9b a5       	ldd	r25, Y+43	; 0x2b
    1e5a:	01 97       	sbiw	r24, 0x01	; 1
    1e5c:	9b a7       	std	Y+43, r25	; 0x2b
    1e5e:	8a a7       	std	Y+42, r24	; 0x2a
    1e60:	eb cf       	rjmp	.-42     	; 0x1e38 <main+0xbf0>
    1e62:	6e a1       	ldd	r22, Y+38	; 0x26
    1e64:	7f a1       	ldd	r23, Y+39	; 0x27
    1e66:	88 a5       	ldd	r24, Y+40	; 0x28
    1e68:	99 a5       	ldd	r25, Y+41	; 0x29
    1e6a:	58 d3       	rcall	.+1712   	; 0x251c <__fixunssfsi>
    1e6c:	dc 01       	movw	r26, r24
    1e6e:	cb 01       	movw	r24, r22
    1e70:	9b a7       	std	Y+43, r25	; 0x2b
    1e72:	8a a7       	std	Y+42, r24	; 0x2a
    1e74:	8a a5       	ldd	r24, Y+42	; 0x2a
    1e76:	9b a5       	ldd	r25, Y+43	; 0x2b
    1e78:	9f a7       	std	Y+47, r25	; 0x2f
    1e7a:	8e a7       	std	Y+46, r24	; 0x2e
    1e7c:	8e a5       	ldd	r24, Y+46	; 0x2e
    1e7e:	9f a5       	ldd	r25, Y+47	; 0x2f
	sprintf(Transmite_buf, "Nr de impulsuri pe secunda Y %lu \n", Steps_Y);
	USART_putstring_hardware(Transmite_buf);
	
	unsigned char fanion_start=0;
	
    while (1) 
    1e80:	01 97       	sbiw	r24, 0x01	; 1
    1e82:	f1 f7       	brne	.-4      	; 0x1e80 <main+0xc38>
    1e84:	9f a7       	std	Y+47, r25	; 0x2f
    1e86:	8e a7       	std	Y+46, r24	; 0x2e
    1e88:	c5 cd       	rjmp	.-1142   	; 0x1a14 <main+0x7cc>

00001e8a <__vector_25>:
			_delay_ms(100);
		}
}

ISR(USART0_RX_vect)
{
    1e8a:	1f 92       	push	r1
    1e8c:	0f 92       	push	r0
    1e8e:	00 90 5f 00 	lds	r0, 0x005F	; 0x80005f <__TEXT_REGION_LENGTH__+0x70005f>
    1e92:	0f 92       	push	r0
    1e94:	11 24       	eor	r1, r1
    1e96:	00 90 5b 00 	lds	r0, 0x005B	; 0x80005b <__TEXT_REGION_LENGTH__+0x70005b>
    1e9a:	0f 92       	push	r0
    1e9c:	2f 93       	push	r18
    1e9e:	3f 93       	push	r19
    1ea0:	4f 93       	push	r20
    1ea2:	5f 93       	push	r21
    1ea4:	6f 93       	push	r22
    1ea6:	7f 93       	push	r23
    1ea8:	8f 93       	push	r24
    1eaa:	9f 93       	push	r25
    1eac:	af 93       	push	r26
    1eae:	bf 93       	push	r27
    1eb0:	ef 93       	push	r30
    1eb2:	ff 93       	push	r31
    1eb4:	cf 93       	push	r28
    1eb6:	df 93       	push	r29
    1eb8:	cd b7       	in	r28, 0x3d	; 61
    1eba:	de b7       	in	r29, 0x3e	; 62
Receive_buf[Receive_W] = UDR0;	
    1ebc:	80 91 16 06 	lds	r24, 0x0616	; 0x800616 <Receive_W>
    1ec0:	88 2f       	mov	r24, r24
    1ec2:	90 e0       	ldi	r25, 0x00	; 0
    1ec4:	26 ec       	ldi	r18, 0xC6	; 198
    1ec6:	30 e0       	ldi	r19, 0x00	; 0
    1ec8:	f9 01       	movw	r30, r18
    1eca:	20 81       	ld	r18, Z
    1ecc:	8a 5e       	subi	r24, 0xEA	; 234
    1ece:	9b 4f       	sbci	r25, 0xFB	; 251
    1ed0:	fc 01       	movw	r30, r24
    1ed2:	20 83       	st	Z, r18
Receive_W++;							// pregatirea adresei pentru urmatorul byte ce va veni in port
    1ed4:	80 91 16 06 	lds	r24, 0x0616	; 0x800616 <Receive_W>
    1ed8:	8f 5f       	subi	r24, 0xFF	; 255
    1eda:	80 93 16 06 	sts	0x0616, r24	; 0x800616 <Receive_W>
Receive_C++;
    1ede:	80 91 17 06 	lds	r24, 0x0617	; 0x800617 <Receive_C>
    1ee2:	8f 5f       	subi	r24, 0xFF	; 255
    1ee4:	80 93 17 06 	sts	0x0617, r24	; 0x800617 <Receive_C>
Start_timer0();
    1ee8:	0e 94 15 01 	call	0x22a	; 0x22a <_Z12Start_timer0v>
}
    1eec:	00 00       	nop
    1eee:	df 91       	pop	r29
    1ef0:	cf 91       	pop	r28
    1ef2:	ff 91       	pop	r31
    1ef4:	ef 91       	pop	r30
    1ef6:	bf 91       	pop	r27
    1ef8:	af 91       	pop	r26
    1efa:	9f 91       	pop	r25
    1efc:	8f 91       	pop	r24
    1efe:	7f 91       	pop	r23
    1f00:	6f 91       	pop	r22
    1f02:	5f 91       	pop	r21
    1f04:	4f 91       	pop	r20
    1f06:	3f 91       	pop	r19
    1f08:	2f 91       	pop	r18
    1f0a:	0f 90       	pop	r0
    1f0c:	00 92 5b 00 	sts	0x005B, r0	; 0x80005b <__TEXT_REGION_LENGTH__+0x70005b>
    1f10:	0f 90       	pop	r0
    1f12:	00 92 5f 00 	sts	0x005F, r0	; 0x80005f <__TEXT_REGION_LENGTH__+0x70005f>
    1f16:	0f 90       	pop	r0
    1f18:	1f 90       	pop	r1
    1f1a:	18 95       	reti

00001f1c <__vector_17>:

ISR(TIMER1_COMPA_vect)
{
    1f1c:	1f 92       	push	r1
    1f1e:	0f 92       	push	r0
    1f20:	00 90 5f 00 	lds	r0, 0x005F	; 0x80005f <__TEXT_REGION_LENGTH__+0x70005f>
    1f24:	0f 92       	push	r0
    1f26:	11 24       	eor	r1, r1
    1f28:	00 90 5b 00 	lds	r0, 0x005B	; 0x80005b <__TEXT_REGION_LENGTH__+0x70005b>
    1f2c:	0f 92       	push	r0
    1f2e:	2f 93       	push	r18
    1f30:	3f 93       	push	r19
    1f32:	4f 93       	push	r20
    1f34:	5f 93       	push	r21
    1f36:	6f 93       	push	r22
    1f38:	7f 93       	push	r23
    1f3a:	8f 93       	push	r24
    1f3c:	9f 93       	push	r25
    1f3e:	af 93       	push	r26
    1f40:	bf 93       	push	r27
    1f42:	ef 93       	push	r30
    1f44:	ff 93       	push	r31
    1f46:	cf 93       	push	r28
    1f48:	df 93       	push	r29
    1f4a:	cd b7       	in	r28, 0x3d	; 61
    1f4c:	de b7       	in	r29, 0x3e	; 62
	if(Overflow_timer11 != 0)
    1f4e:	90 91 1c 06 	lds	r25, 0x061C	; 0x80061c <Overflow_timer11>
    1f52:	81 e0       	ldi	r24, 0x01	; 1
    1f54:	99 23       	and	r25, r25
    1f56:	09 f4       	brne	.+2      	; 0x1f5a <__vector_17+0x3e>
    1f58:	80 e0       	ldi	r24, 0x00	; 0
    1f5a:	88 23       	and	r24, r24
    1f5c:	29 f0       	breq	.+10     	; 0x1f68 <__vector_17+0x4c>
		{
			Overflow_timer11--;	
    1f5e:	80 91 1c 06 	lds	r24, 0x061C	; 0x80061c <Overflow_timer11>
    1f62:	81 50       	subi	r24, 0x01	; 1
    1f64:	80 93 1c 06 	sts	0x061C, r24	; 0x80061c <Overflow_timer11>
		}
	if(Overflow_timer11==0)
    1f68:	90 91 1c 06 	lds	r25, 0x061C	; 0x80061c <Overflow_timer11>
    1f6c:	81 e0       	ldi	r24, 0x01	; 1
    1f6e:	99 23       	and	r25, r25
    1f70:	09 f0       	breq	.+2      	; 0x1f74 <__vector_17+0x58>
    1f72:	80 e0       	ldi	r24, 0x00	; 0
    1f74:	88 23       	and	r24, r24
    1f76:	09 f4       	brne	.+2      	; 0x1f7a <__vector_17+0x5e>
    1f78:	a4 c0       	rjmp	.+328    	; 0x20c2 <__vector_17+0x1a6>
		{	
			if(Overflow_timer12 !=0)
    1f7a:	90 91 1d 06 	lds	r25, 0x061D	; 0x80061d <Overflow_timer12>
    1f7e:	81 e0       	ldi	r24, 0x01	; 1
    1f80:	99 23       	and	r25, r25
    1f82:	09 f4       	brne	.+2      	; 0x1f86 <__vector_17+0x6a>
    1f84:	80 e0       	ldi	r24, 0x00	; 0
    1f86:	88 23       	and	r24, r24
    1f88:	09 f4       	brne	.+2      	; 0x1f8c <__vector_17+0x70>
    1f8a:	62 c0       	rjmp	.+196    	; 0x2050 <__vector_17+0x134>
				{
					OCR1A = Valoarea_de_numarareX;
    1f8c:	28 e8       	ldi	r18, 0x88	; 136
    1f8e:	30 e0       	ldi	r19, 0x00	; 0
    1f90:	80 91 20 06 	lds	r24, 0x0620	; 0x800620 <Valoarea_de_numarareX>
    1f94:	90 91 21 06 	lds	r25, 0x0621	; 0x800621 <Valoarea_de_numarareX+0x1>
    1f98:	a0 91 22 06 	lds	r26, 0x0622	; 0x800622 <Valoarea_de_numarareX+0x2>
    1f9c:	b0 91 23 06 	lds	r27, 0x0623	; 0x800623 <Valoarea_de_numarareX+0x3>
    1fa0:	f9 01       	movw	r30, r18
    1fa2:	91 83       	std	Z+1, r25	; 0x01
    1fa4:	80 83       	st	Z, r24
					fanion_x++;
    1fa6:	80 91 1a 06 	lds	r24, 0x061A	; 0x80061a <fanion_x>
    1faa:	8f 5f       	subi	r24, 0xFF	; 255
    1fac:	80 93 1a 06 	sts	0x061A, r24	; 0x80061a <fanion_x>
					if(fanion_x==2)
    1fb0:	90 91 1a 06 	lds	r25, 0x061A	; 0x80061a <fanion_x>
    1fb4:	81 e0       	ldi	r24, 0x01	; 1
    1fb6:	92 30       	cpi	r25, 0x02	; 2
    1fb8:	09 f0       	breq	.+2      	; 0x1fbc <__vector_17+0xa0>
    1fba:	80 e0       	ldi	r24, 0x00	; 0
    1fbc:	88 23       	and	r24, r24
    1fbe:	09 f4       	brne	.+2      	; 0x1fc2 <__vector_17+0xa6>
    1fc0:	80 c0       	rjmp	.+256    	; 0x20c2 <__vector_17+0x1a6>
						{
							fanion_x=0;
    1fc2:	10 92 1a 06 	sts	0x061A, r1	; 0x80061a <fanion_x>
							OCR1A=0xFFFF;
    1fc6:	88 e8       	ldi	r24, 0x88	; 136
    1fc8:	90 e0       	ldi	r25, 0x00	; 0
    1fca:	2f ef       	ldi	r18, 0xFF	; 255
    1fcc:	3f ef       	ldi	r19, 0xFF	; 255
    1fce:	fc 01       	movw	r30, r24
    1fd0:	31 83       	std	Z+1, r19	; 0x01
    1fd2:	20 83       	st	Z, r18
							Overflow_timer11=Overflow_timer12;
    1fd4:	80 91 1d 06 	lds	r24, 0x061D	; 0x80061d <Overflow_timer12>
    1fd8:	80 93 1c 06 	sts	0x061C, r24	; 0x80061c <Overflow_timer11>
							if(Fanion_RunStep_X==1)
    1fdc:	90 91 30 06 	lds	r25, 0x0630	; 0x800630 <Fanion_RunStep_X>
    1fe0:	81 e0       	ldi	r24, 0x01	; 1
    1fe2:	91 30       	cpi	r25, 0x01	; 1
    1fe4:	09 f0       	breq	.+2      	; 0x1fe8 <__vector_17+0xcc>
    1fe6:	80 e0       	ldi	r24, 0x00	; 0
    1fe8:	88 23       	and	r24, r24
    1fea:	39 f1       	breq	.+78     	; 0x203a <__vector_17+0x11e>
								{
									Pasi_decrement_X--;
    1fec:	80 91 28 06 	lds	r24, 0x0628	; 0x800628 <Pasi_decrement_X>
    1ff0:	90 91 29 06 	lds	r25, 0x0629	; 0x800629 <Pasi_decrement_X+0x1>
    1ff4:	a0 91 2a 06 	lds	r26, 0x062A	; 0x80062a <Pasi_decrement_X+0x2>
    1ff8:	b0 91 2b 06 	lds	r27, 0x062B	; 0x80062b <Pasi_decrement_X+0x3>
    1ffc:	01 97       	sbiw	r24, 0x01	; 1
    1ffe:	a1 09       	sbc	r26, r1
    2000:	b1 09       	sbc	r27, r1
    2002:	80 93 28 06 	sts	0x0628, r24	; 0x800628 <Pasi_decrement_X>
    2006:	90 93 29 06 	sts	0x0629, r25	; 0x800629 <Pasi_decrement_X+0x1>
    200a:	a0 93 2a 06 	sts	0x062A, r26	; 0x80062a <Pasi_decrement_X+0x2>
    200e:	b0 93 2b 06 	sts	0x062B, r27	; 0x80062b <Pasi_decrement_X+0x3>
									if(Pasi_decrement_X==0)
    2012:	80 91 28 06 	lds	r24, 0x0628	; 0x800628 <Pasi_decrement_X>
    2016:	90 91 29 06 	lds	r25, 0x0629	; 0x800629 <Pasi_decrement_X+0x1>
    201a:	a0 91 2a 06 	lds	r26, 0x062A	; 0x80062a <Pasi_decrement_X+0x2>
    201e:	b0 91 2b 06 	lds	r27, 0x062B	; 0x80062b <Pasi_decrement_X+0x3>
    2022:	21 e0       	ldi	r18, 0x01	; 1
    2024:	89 2b       	or	r24, r25
    2026:	8a 2b       	or	r24, r26
    2028:	8b 2b       	or	r24, r27
    202a:	09 f0       	breq	.+2      	; 0x202e <__vector_17+0x112>
    202c:	20 e0       	ldi	r18, 0x00	; 0
    202e:	22 23       	and	r18, r18
    2030:	21 f0       	breq	.+8      	; 0x203a <__vector_17+0x11e>
										{
											Fanion_RunStep_X=0;
    2032:	10 92 30 06 	sts	0x0630, r1	; 0x800630 <Fanion_RunStep_X>
											Off_timer1();
    2036:	0e 94 37 01 	call	0x26e	; 0x26e <_Z10Off_timer1v>
											//Disable_stepper(X_EN);
										}
								}
							PORTF ^= (1 << X_STEP);
    203a:	81 e3       	ldi	r24, 0x31	; 49
    203c:	90 e0       	ldi	r25, 0x00	; 0
    203e:	21 e3       	ldi	r18, 0x31	; 49
    2040:	30 e0       	ldi	r19, 0x00	; 0
    2042:	f9 01       	movw	r30, r18
    2044:	30 81       	ld	r19, Z
    2046:	21 e0       	ldi	r18, 0x01	; 1
    2048:	23 27       	eor	r18, r19
    204a:	fc 01       	movw	r30, r24
    204c:	20 83       	st	Z, r18
    204e:	39 c0       	rjmp	.+114    	; 0x20c2 <__vector_17+0x1a6>
						}
				}
			else
				{
					if(Fanion_RunStep_X==1)
    2050:	90 91 30 06 	lds	r25, 0x0630	; 0x800630 <Fanion_RunStep_X>
    2054:	81 e0       	ldi	r24, 0x01	; 1
    2056:	91 30       	cpi	r25, 0x01	; 1
    2058:	09 f0       	breq	.+2      	; 0x205c <__vector_17+0x140>
    205a:	80 e0       	ldi	r24, 0x00	; 0
    205c:	88 23       	and	r24, r24
    205e:	39 f1       	breq	.+78     	; 0x20ae <__vector_17+0x192>
						{
							Pasi_decrement_X--;
    2060:	80 91 28 06 	lds	r24, 0x0628	; 0x800628 <Pasi_decrement_X>
    2064:	90 91 29 06 	lds	r25, 0x0629	; 0x800629 <Pasi_decrement_X+0x1>
    2068:	a0 91 2a 06 	lds	r26, 0x062A	; 0x80062a <Pasi_decrement_X+0x2>
    206c:	b0 91 2b 06 	lds	r27, 0x062B	; 0x80062b <Pasi_decrement_X+0x3>
    2070:	01 97       	sbiw	r24, 0x01	; 1
    2072:	a1 09       	sbc	r26, r1
    2074:	b1 09       	sbc	r27, r1
    2076:	80 93 28 06 	sts	0x0628, r24	; 0x800628 <Pasi_decrement_X>
    207a:	90 93 29 06 	sts	0x0629, r25	; 0x800629 <Pasi_decrement_X+0x1>
    207e:	a0 93 2a 06 	sts	0x062A, r26	; 0x80062a <Pasi_decrement_X+0x2>
    2082:	b0 93 2b 06 	sts	0x062B, r27	; 0x80062b <Pasi_decrement_X+0x3>
							if(Pasi_decrement_X==0)
    2086:	80 91 28 06 	lds	r24, 0x0628	; 0x800628 <Pasi_decrement_X>
    208a:	90 91 29 06 	lds	r25, 0x0629	; 0x800629 <Pasi_decrement_X+0x1>
    208e:	a0 91 2a 06 	lds	r26, 0x062A	; 0x80062a <Pasi_decrement_X+0x2>
    2092:	b0 91 2b 06 	lds	r27, 0x062B	; 0x80062b <Pasi_decrement_X+0x3>
    2096:	21 e0       	ldi	r18, 0x01	; 1
    2098:	89 2b       	or	r24, r25
    209a:	8a 2b       	or	r24, r26
    209c:	8b 2b       	or	r24, r27
    209e:	09 f0       	breq	.+2      	; 0x20a2 <__vector_17+0x186>
    20a0:	20 e0       	ldi	r18, 0x00	; 0
    20a2:	22 23       	and	r18, r18
    20a4:	21 f0       	breq	.+8      	; 0x20ae <__vector_17+0x192>
								{
									Fanion_RunStep_X=0;
    20a6:	10 92 30 06 	sts	0x0630, r1	; 0x800630 <Fanion_RunStep_X>
									Off_timer1();
    20aa:	0e 94 37 01 	call	0x26e	; 0x26e <_Z10Off_timer1v>
									//Disable_stepper(X_EN);
								}
						}
					PORTF ^= (1 << X_STEP);
    20ae:	81 e3       	ldi	r24, 0x31	; 49
    20b0:	90 e0       	ldi	r25, 0x00	; 0
    20b2:	21 e3       	ldi	r18, 0x31	; 49
    20b4:	30 e0       	ldi	r19, 0x00	; 0
    20b6:	f9 01       	movw	r30, r18
    20b8:	30 81       	ld	r19, Z
    20ba:	21 e0       	ldi	r18, 0x01	; 1
    20bc:	23 27       	eor	r18, r19
    20be:	fc 01       	movw	r30, r24
    20c0:	20 83       	st	Z, r18
				}
		}
	TCNT1H=0x00;
    20c2:	85 e8       	ldi	r24, 0x85	; 133
    20c4:	90 e0       	ldi	r25, 0x00	; 0
    20c6:	fc 01       	movw	r30, r24
    20c8:	10 82       	st	Z, r1
	TCNT1L=0x00;	
    20ca:	84 e8       	ldi	r24, 0x84	; 132
    20cc:	90 e0       	ldi	r25, 0x00	; 0
    20ce:	fc 01       	movw	r30, r24
    20d0:	10 82       	st	Z, r1
}
    20d2:	00 00       	nop
    20d4:	df 91       	pop	r29
    20d6:	cf 91       	pop	r28
    20d8:	ff 91       	pop	r31
    20da:	ef 91       	pop	r30
    20dc:	bf 91       	pop	r27
    20de:	af 91       	pop	r26
    20e0:	9f 91       	pop	r25
    20e2:	8f 91       	pop	r24
    20e4:	7f 91       	pop	r23
    20e6:	6f 91       	pop	r22
    20e8:	5f 91       	pop	r21
    20ea:	4f 91       	pop	r20
    20ec:	3f 91       	pop	r19
    20ee:	2f 91       	pop	r18
    20f0:	0f 90       	pop	r0
    20f2:	00 92 5b 00 	sts	0x005B, r0	; 0x80005b <__TEXT_REGION_LENGTH__+0x70005b>
    20f6:	0f 90       	pop	r0
    20f8:	00 92 5f 00 	sts	0x005F, r0	; 0x80005f <__TEXT_REGION_LENGTH__+0x70005f>
    20fc:	0f 90       	pop	r0
    20fe:	1f 90       	pop	r1
    2100:	18 95       	reti

00002102 <__vector_32>:

ISR(TIMER3_COMPA_vect)
{
    2102:	1f 92       	push	r1
    2104:	0f 92       	push	r0
    2106:	00 90 5f 00 	lds	r0, 0x005F	; 0x80005f <__TEXT_REGION_LENGTH__+0x70005f>
    210a:	0f 92       	push	r0
    210c:	11 24       	eor	r1, r1
    210e:	00 90 5b 00 	lds	r0, 0x005B	; 0x80005b <__TEXT_REGION_LENGTH__+0x70005b>
    2112:	0f 92       	push	r0
    2114:	2f 93       	push	r18
    2116:	3f 93       	push	r19
    2118:	4f 93       	push	r20
    211a:	5f 93       	push	r21
    211c:	6f 93       	push	r22
    211e:	7f 93       	push	r23
    2120:	8f 93       	push	r24
    2122:	9f 93       	push	r25
    2124:	af 93       	push	r26
    2126:	bf 93       	push	r27
    2128:	ef 93       	push	r30
    212a:	ff 93       	push	r31
    212c:	cf 93       	push	r28
    212e:	df 93       	push	r29
    2130:	cd b7       	in	r28, 0x3d	; 61
    2132:	de b7       	in	r29, 0x3e	; 62
	if(Overflow_timer31 != 0)
    2134:	90 91 1e 06 	lds	r25, 0x061E	; 0x80061e <Overflow_timer31>
    2138:	81 e0       	ldi	r24, 0x01	; 1
    213a:	99 23       	and	r25, r25
    213c:	09 f4       	brne	.+2      	; 0x2140 <__vector_32+0x3e>
    213e:	80 e0       	ldi	r24, 0x00	; 0
    2140:	88 23       	and	r24, r24
    2142:	29 f0       	breq	.+10     	; 0x214e <__vector_32+0x4c>
	{
		Overflow_timer31--;
    2144:	80 91 1e 06 	lds	r24, 0x061E	; 0x80061e <Overflow_timer31>
    2148:	81 50       	subi	r24, 0x01	; 1
    214a:	80 93 1e 06 	sts	0x061E, r24	; 0x80061e <Overflow_timer31>
	}
	if(Overflow_timer31==0)
    214e:	90 91 1e 06 	lds	r25, 0x061E	; 0x80061e <Overflow_timer31>
    2152:	81 e0       	ldi	r24, 0x01	; 1
    2154:	99 23       	and	r25, r25
    2156:	09 f0       	breq	.+2      	; 0x215a <__vector_32+0x58>
    2158:	80 e0       	ldi	r24, 0x00	; 0
    215a:	88 23       	and	r24, r24
    215c:	09 f4       	brne	.+2      	; 0x2160 <__vector_32+0x5e>
    215e:	a4 c0       	rjmp	.+328    	; 0x22a8 <__stack+0xa9>
	{
		if(Overflow_timer32 !=0)
    2160:	90 91 1f 06 	lds	r25, 0x061F	; 0x80061f <Overflow_timer32>
    2164:	81 e0       	ldi	r24, 0x01	; 1
    2166:	99 23       	and	r25, r25
    2168:	09 f4       	brne	.+2      	; 0x216c <__vector_32+0x6a>
    216a:	80 e0       	ldi	r24, 0x00	; 0
    216c:	88 23       	and	r24, r24
    216e:	09 f4       	brne	.+2      	; 0x2172 <__vector_32+0x70>
    2170:	62 c0       	rjmp	.+196    	; 0x2236 <__stack+0x37>
		{
			OCR3A = Valoarea_de_numarareY;
    2172:	28 e9       	ldi	r18, 0x98	; 152
    2174:	30 e0       	ldi	r19, 0x00	; 0
    2176:	80 91 24 06 	lds	r24, 0x0624	; 0x800624 <Valoarea_de_numarareY>
    217a:	90 91 25 06 	lds	r25, 0x0625	; 0x800625 <Valoarea_de_numarareY+0x1>
    217e:	a0 91 26 06 	lds	r26, 0x0626	; 0x800626 <Valoarea_de_numarareY+0x2>
    2182:	b0 91 27 06 	lds	r27, 0x0627	; 0x800627 <Valoarea_de_numarareY+0x3>
    2186:	f9 01       	movw	r30, r18
    2188:	91 83       	std	Z+1, r25	; 0x01
    218a:	80 83       	st	Z, r24
			fanion_y++;
    218c:	80 91 1b 06 	lds	r24, 0x061B	; 0x80061b <fanion_y>
    2190:	8f 5f       	subi	r24, 0xFF	; 255
    2192:	80 93 1b 06 	sts	0x061B, r24	; 0x80061b <fanion_y>
			if(fanion_y==2)
    2196:	90 91 1b 06 	lds	r25, 0x061B	; 0x80061b <fanion_y>
    219a:	81 e0       	ldi	r24, 0x01	; 1
    219c:	92 30       	cpi	r25, 0x02	; 2
    219e:	09 f0       	breq	.+2      	; 0x21a2 <__vector_32+0xa0>
    21a0:	80 e0       	ldi	r24, 0x00	; 0
    21a2:	88 23       	and	r24, r24
    21a4:	09 f4       	brne	.+2      	; 0x21a8 <__vector_32+0xa6>
    21a6:	80 c0       	rjmp	.+256    	; 0x22a8 <__stack+0xa9>
			{
				fanion_y=0;
    21a8:	10 92 1b 06 	sts	0x061B, r1	; 0x80061b <fanion_y>
				OCR3A=0xFFFF;
    21ac:	88 e9       	ldi	r24, 0x98	; 152
    21ae:	90 e0       	ldi	r25, 0x00	; 0
    21b0:	2f ef       	ldi	r18, 0xFF	; 255
    21b2:	3f ef       	ldi	r19, 0xFF	; 255
    21b4:	fc 01       	movw	r30, r24
    21b6:	31 83       	std	Z+1, r19	; 0x01
    21b8:	20 83       	st	Z, r18
				Overflow_timer31=Overflow_timer32;
    21ba:	80 91 1f 06 	lds	r24, 0x061F	; 0x80061f <Overflow_timer32>
    21be:	80 93 1e 06 	sts	0x061E, r24	; 0x80061e <Overflow_timer31>
				if(Fanion_RunStep_Y==1)
    21c2:	90 91 31 06 	lds	r25, 0x0631	; 0x800631 <Fanion_RunStep_Y>
    21c6:	81 e0       	ldi	r24, 0x01	; 1
    21c8:	91 30       	cpi	r25, 0x01	; 1
    21ca:	09 f0       	breq	.+2      	; 0x21ce <__vector_32+0xcc>
    21cc:	80 e0       	ldi	r24, 0x00	; 0
    21ce:	88 23       	and	r24, r24
    21d0:	39 f1       	breq	.+78     	; 0x2220 <__stack+0x21>
				{
					Pasi_decrement_Y--;
    21d2:	80 91 2c 06 	lds	r24, 0x062C	; 0x80062c <Pasi_decrement_Y>
    21d6:	90 91 2d 06 	lds	r25, 0x062D	; 0x80062d <Pasi_decrement_Y+0x1>
    21da:	a0 91 2e 06 	lds	r26, 0x062E	; 0x80062e <Pasi_decrement_Y+0x2>
    21de:	b0 91 2f 06 	lds	r27, 0x062F	; 0x80062f <Pasi_decrement_Y+0x3>
    21e2:	01 97       	sbiw	r24, 0x01	; 1
    21e4:	a1 09       	sbc	r26, r1
    21e6:	b1 09       	sbc	r27, r1
    21e8:	80 93 2c 06 	sts	0x062C, r24	; 0x80062c <Pasi_decrement_Y>
    21ec:	90 93 2d 06 	sts	0x062D, r25	; 0x80062d <Pasi_decrement_Y+0x1>
    21f0:	a0 93 2e 06 	sts	0x062E, r26	; 0x80062e <Pasi_decrement_Y+0x2>
    21f4:	b0 93 2f 06 	sts	0x062F, r27	; 0x80062f <Pasi_decrement_Y+0x3>
					if(Pasi_decrement_Y==0)
    21f8:	80 91 2c 06 	lds	r24, 0x062C	; 0x80062c <Pasi_decrement_Y>
    21fc:	90 91 2d 06 	lds	r25, 0x062D	; 0x80062d <Pasi_decrement_Y+0x1>
    2200:	a0 91 2e 06 	lds	r26, 0x062E	; 0x80062e <Pasi_decrement_Y+0x2>
    2204:	b0 91 2f 06 	lds	r27, 0x062F	; 0x80062f <Pasi_decrement_Y+0x3>
    2208:	21 e0       	ldi	r18, 0x01	; 1
    220a:	89 2b       	or	r24, r25
    220c:	8a 2b       	or	r24, r26
    220e:	8b 2b       	or	r24, r27
    2210:	09 f0       	breq	.+2      	; 0x2214 <__stack+0x15>
    2212:	20 e0       	ldi	r18, 0x00	; 0
    2214:	22 23       	and	r18, r18
    2216:	21 f0       	breq	.+8      	; 0x2220 <__stack+0x21>
					{
						Fanion_RunStep_Y=0;
    2218:	10 92 31 06 	sts	0x0631, r1	; 0x800631 <Fanion_RunStep_Y>
						Off_timer3();
    221c:	0e 94 aa 01 	call	0x354	; 0x354 <_Z10Off_timer3v>
						//Disable_stepper(Y_EN);
					}
				}
				PORTF ^= (1 << Y_STEP);
    2220:	81 e3       	ldi	r24, 0x31	; 49
    2222:	90 e0       	ldi	r25, 0x00	; 0
    2224:	21 e3       	ldi	r18, 0x31	; 49
    2226:	30 e0       	ldi	r19, 0x00	; 0
    2228:	f9 01       	movw	r30, r18
    222a:	30 81       	ld	r19, Z
    222c:	20 e4       	ldi	r18, 0x40	; 64
    222e:	23 27       	eor	r18, r19
    2230:	fc 01       	movw	r30, r24
    2232:	20 83       	st	Z, r18
    2234:	39 c0       	rjmp	.+114    	; 0x22a8 <__stack+0xa9>
			}
		}
		else
		{
			if(Fanion_RunStep_Y==1)
    2236:	90 91 31 06 	lds	r25, 0x0631	; 0x800631 <Fanion_RunStep_Y>
    223a:	81 e0       	ldi	r24, 0x01	; 1
    223c:	91 30       	cpi	r25, 0x01	; 1
    223e:	09 f0       	breq	.+2      	; 0x2242 <__stack+0x43>
    2240:	80 e0       	ldi	r24, 0x00	; 0
    2242:	88 23       	and	r24, r24
    2244:	39 f1       	breq	.+78     	; 0x2294 <__stack+0x95>
			{
				Pasi_decrement_Y--;
    2246:	80 91 2c 06 	lds	r24, 0x062C	; 0x80062c <Pasi_decrement_Y>
    224a:	90 91 2d 06 	lds	r25, 0x062D	; 0x80062d <Pasi_decrement_Y+0x1>
    224e:	a0 91 2e 06 	lds	r26, 0x062E	; 0x80062e <Pasi_decrement_Y+0x2>
    2252:	b0 91 2f 06 	lds	r27, 0x062F	; 0x80062f <Pasi_decrement_Y+0x3>
    2256:	01 97       	sbiw	r24, 0x01	; 1
    2258:	a1 09       	sbc	r26, r1
    225a:	b1 09       	sbc	r27, r1
    225c:	80 93 2c 06 	sts	0x062C, r24	; 0x80062c <Pasi_decrement_Y>
    2260:	90 93 2d 06 	sts	0x062D, r25	; 0x80062d <Pasi_decrement_Y+0x1>
    2264:	a0 93 2e 06 	sts	0x062E, r26	; 0x80062e <Pasi_decrement_Y+0x2>
    2268:	b0 93 2f 06 	sts	0x062F, r27	; 0x80062f <Pasi_decrement_Y+0x3>
				if(Pasi_decrement_Y==0)
    226c:	80 91 2c 06 	lds	r24, 0x062C	; 0x80062c <Pasi_decrement_Y>
    2270:	90 91 2d 06 	lds	r25, 0x062D	; 0x80062d <Pasi_decrement_Y+0x1>
    2274:	a0 91 2e 06 	lds	r26, 0x062E	; 0x80062e <Pasi_decrement_Y+0x2>
    2278:	b0 91 2f 06 	lds	r27, 0x062F	; 0x80062f <Pasi_decrement_Y+0x3>
    227c:	21 e0       	ldi	r18, 0x01	; 1
    227e:	89 2b       	or	r24, r25
    2280:	8a 2b       	or	r24, r26
    2282:	8b 2b       	or	r24, r27
    2284:	09 f0       	breq	.+2      	; 0x2288 <__stack+0x89>
    2286:	20 e0       	ldi	r18, 0x00	; 0
    2288:	22 23       	and	r18, r18
    228a:	21 f0       	breq	.+8      	; 0x2294 <__stack+0x95>
				{
					Fanion_RunStep_Y=0;
    228c:	10 92 31 06 	sts	0x0631, r1	; 0x800631 <Fanion_RunStep_Y>
					Off_timer3();
    2290:	0e 94 aa 01 	call	0x354	; 0x354 <_Z10Off_timer3v>
					//Disable_stepper(Y_EN);
				}
			}
			PORTF ^= (1 << Y_STEP);
    2294:	81 e3       	ldi	r24, 0x31	; 49
    2296:	90 e0       	ldi	r25, 0x00	; 0
    2298:	21 e3       	ldi	r18, 0x31	; 49
    229a:	30 e0       	ldi	r19, 0x00	; 0
    229c:	f9 01       	movw	r30, r18
    229e:	30 81       	ld	r19, Z
    22a0:	20 e4       	ldi	r18, 0x40	; 64
    22a2:	23 27       	eor	r18, r19
    22a4:	fc 01       	movw	r30, r24
    22a6:	20 83       	st	Z, r18
		}
	}
	TCNT3H=0x00;
    22a8:	85 e9       	ldi	r24, 0x95	; 149
    22aa:	90 e0       	ldi	r25, 0x00	; 0
    22ac:	fc 01       	movw	r30, r24
    22ae:	10 82       	st	Z, r1
	TCNT3L=0x00;
    22b0:	84 e9       	ldi	r24, 0x94	; 148
    22b2:	90 e0       	ldi	r25, 0x00	; 0
    22b4:	fc 01       	movw	r30, r24
    22b6:	10 82       	st	Z, r1
}
    22b8:	00 00       	nop
    22ba:	df 91       	pop	r29
    22bc:	cf 91       	pop	r28
    22be:	ff 91       	pop	r31
    22c0:	ef 91       	pop	r30
    22c2:	bf 91       	pop	r27
    22c4:	af 91       	pop	r26
    22c6:	9f 91       	pop	r25
    22c8:	8f 91       	pop	r24
    22ca:	7f 91       	pop	r23
    22cc:	6f 91       	pop	r22
    22ce:	5f 91       	pop	r21
    22d0:	4f 91       	pop	r20
    22d2:	3f 91       	pop	r19
    22d4:	2f 91       	pop	r18
    22d6:	0f 90       	pop	r0
    22d8:	00 92 5b 00 	sts	0x005B, r0	; 0x80005b <__TEXT_REGION_LENGTH__+0x70005b>
    22dc:	0f 90       	pop	r0
    22de:	00 92 5f 00 	sts	0x005F, r0	; 0x80005f <__TEXT_REGION_LENGTH__+0x70005f>
    22e2:	0f 90       	pop	r0
    22e4:	1f 90       	pop	r1
    22e6:	18 95       	reti

000022e8 <__vector_23>:

ISR(TIMER0_OVF_vect)
{
    22e8:	1f 92       	push	r1
    22ea:	0f 92       	push	r0
    22ec:	00 90 5f 00 	lds	r0, 0x005F	; 0x80005f <__TEXT_REGION_LENGTH__+0x70005f>
    22f0:	0f 92       	push	r0
    22f2:	11 24       	eor	r1, r1
    22f4:	00 90 5b 00 	lds	r0, 0x005B	; 0x80005b <__TEXT_REGION_LENGTH__+0x70005b>
    22f8:	0f 92       	push	r0
    22fa:	2f 93       	push	r18
    22fc:	3f 93       	push	r19
    22fe:	4f 93       	push	r20
    2300:	5f 93       	push	r21
    2302:	6f 93       	push	r22
    2304:	7f 93       	push	r23
    2306:	8f 93       	push	r24
    2308:	9f 93       	push	r25
    230a:	af 93       	push	r26
    230c:	bf 93       	push	r27
    230e:	ef 93       	push	r30
    2310:	ff 93       	push	r31
    2312:	cf 93       	push	r28
    2314:	df 93       	push	r29
    2316:	cd b7       	in	r28, 0x3d	; 61
    2318:	de b7       	in	r29, 0x3e	; 62
fanion_asteapta_raspuns=1;
    231a:	81 e0       	ldi	r24, 0x01	; 1
    231c:	80 93 19 06 	sts	0x0619, r24	; 0x800619 <fanion_asteapta_raspuns>
Stop_timer0();	
    2320:	0e 94 2b 01 	call	0x256	; 0x256 <_Z11Stop_timer0v>
    2324:	00 00       	nop
    2326:	df 91       	pop	r29
    2328:	cf 91       	pop	r28
    232a:	ff 91       	pop	r31
    232c:	ef 91       	pop	r30
    232e:	bf 91       	pop	r27
    2330:	af 91       	pop	r26
    2332:	9f 91       	pop	r25
    2334:	8f 91       	pop	r24
    2336:	7f 91       	pop	r23
    2338:	6f 91       	pop	r22
    233a:	5f 91       	pop	r21
    233c:	4f 91       	pop	r20
    233e:	3f 91       	pop	r19
    2340:	2f 91       	pop	r18
    2342:	0f 90       	pop	r0
    2344:	00 92 5b 00 	sts	0x005B, r0	; 0x80005b <__TEXT_REGION_LENGTH__+0x70005b>
    2348:	0f 90       	pop	r0
    234a:	00 92 5f 00 	sts	0x005F, r0	; 0x80005f <__TEXT_REGION_LENGTH__+0x70005f>
    234e:	0f 90       	pop	r0
    2350:	1f 90       	pop	r1
    2352:	18 95       	reti

00002354 <__subsf3>:
    2354:	50 58       	subi	r21, 0x80	; 128

00002356 <__addsf3>:
    2356:	bb 27       	eor	r27, r27
    2358:	aa 27       	eor	r26, r26
    235a:	0e d0       	rcall	.+28     	; 0x2378 <__addsf3x>
    235c:	ac c1       	rjmp	.+856    	; 0x26b6 <__fp_round>
    235e:	9d d1       	rcall	.+826    	; 0x269a <__fp_pscA>
    2360:	30 f0       	brcs	.+12     	; 0x236e <__addsf3+0x18>
    2362:	a2 d1       	rcall	.+836    	; 0x26a8 <__fp_pscB>
    2364:	20 f0       	brcs	.+8      	; 0x236e <__addsf3+0x18>
    2366:	31 f4       	brne	.+12     	; 0x2374 <__addsf3+0x1e>
    2368:	9f 3f       	cpi	r25, 0xFF	; 255
    236a:	11 f4       	brne	.+4      	; 0x2370 <__addsf3+0x1a>
    236c:	1e f4       	brtc	.+6      	; 0x2374 <__addsf3+0x1e>
    236e:	92 c1       	rjmp	.+804    	; 0x2694 <__fp_nan>
    2370:	0e f4       	brtc	.+2      	; 0x2374 <__addsf3+0x1e>
    2372:	e0 95       	com	r30
    2374:	e7 fb       	bst	r30, 7
    2376:	5f c1       	rjmp	.+702    	; 0x2636 <__fp_inf>

00002378 <__addsf3x>:
    2378:	e9 2f       	mov	r30, r25
    237a:	ae d1       	rcall	.+860    	; 0x26d8 <__fp_split3>
    237c:	80 f3       	brcs	.-32     	; 0x235e <__addsf3+0x8>
    237e:	ba 17       	cp	r27, r26
    2380:	62 07       	cpc	r22, r18
    2382:	73 07       	cpc	r23, r19
    2384:	84 07       	cpc	r24, r20
    2386:	95 07       	cpc	r25, r21
    2388:	18 f0       	brcs	.+6      	; 0x2390 <__addsf3x+0x18>
    238a:	71 f4       	brne	.+28     	; 0x23a8 <__addsf3x+0x30>
    238c:	9e f5       	brtc	.+102    	; 0x23f4 <__addsf3x+0x7c>
    238e:	dd c1       	rjmp	.+954    	; 0x274a <__fp_zero>
    2390:	0e f4       	brtc	.+2      	; 0x2394 <__addsf3x+0x1c>
    2392:	e0 95       	com	r30
    2394:	0b 2e       	mov	r0, r27
    2396:	ba 2f       	mov	r27, r26
    2398:	a0 2d       	mov	r26, r0
    239a:	0b 01       	movw	r0, r22
    239c:	b9 01       	movw	r22, r18
    239e:	90 01       	movw	r18, r0
    23a0:	0c 01       	movw	r0, r24
    23a2:	ca 01       	movw	r24, r20
    23a4:	a0 01       	movw	r20, r0
    23a6:	11 24       	eor	r1, r1
    23a8:	ff 27       	eor	r31, r31
    23aa:	59 1b       	sub	r21, r25
    23ac:	99 f0       	breq	.+38     	; 0x23d4 <__addsf3x+0x5c>
    23ae:	59 3f       	cpi	r21, 0xF9	; 249
    23b0:	50 f4       	brcc	.+20     	; 0x23c6 <__addsf3x+0x4e>
    23b2:	50 3e       	cpi	r21, 0xE0	; 224
    23b4:	68 f1       	brcs	.+90     	; 0x2410 <__addsf3x+0x98>
    23b6:	1a 16       	cp	r1, r26
    23b8:	f0 40       	sbci	r31, 0x00	; 0
    23ba:	a2 2f       	mov	r26, r18
    23bc:	23 2f       	mov	r18, r19
    23be:	34 2f       	mov	r19, r20
    23c0:	44 27       	eor	r20, r20
    23c2:	58 5f       	subi	r21, 0xF8	; 248
    23c4:	f3 cf       	rjmp	.-26     	; 0x23ac <__addsf3x+0x34>
    23c6:	46 95       	lsr	r20
    23c8:	37 95       	ror	r19
    23ca:	27 95       	ror	r18
    23cc:	a7 95       	ror	r26
    23ce:	f0 40       	sbci	r31, 0x00	; 0
    23d0:	53 95       	inc	r21
    23d2:	c9 f7       	brne	.-14     	; 0x23c6 <__addsf3x+0x4e>
    23d4:	7e f4       	brtc	.+30     	; 0x23f4 <__addsf3x+0x7c>
    23d6:	1f 16       	cp	r1, r31
    23d8:	ba 0b       	sbc	r27, r26
    23da:	62 0b       	sbc	r22, r18
    23dc:	73 0b       	sbc	r23, r19
    23de:	84 0b       	sbc	r24, r20
    23e0:	ba f0       	brmi	.+46     	; 0x2410 <__addsf3x+0x98>
    23e2:	91 50       	subi	r25, 0x01	; 1
    23e4:	a1 f0       	breq	.+40     	; 0x240e <__addsf3x+0x96>
    23e6:	ff 0f       	add	r31, r31
    23e8:	bb 1f       	adc	r27, r27
    23ea:	66 1f       	adc	r22, r22
    23ec:	77 1f       	adc	r23, r23
    23ee:	88 1f       	adc	r24, r24
    23f0:	c2 f7       	brpl	.-16     	; 0x23e2 <__addsf3x+0x6a>
    23f2:	0e c0       	rjmp	.+28     	; 0x2410 <__addsf3x+0x98>
    23f4:	ba 0f       	add	r27, r26
    23f6:	62 1f       	adc	r22, r18
    23f8:	73 1f       	adc	r23, r19
    23fa:	84 1f       	adc	r24, r20
    23fc:	48 f4       	brcc	.+18     	; 0x2410 <__addsf3x+0x98>
    23fe:	87 95       	ror	r24
    2400:	77 95       	ror	r23
    2402:	67 95       	ror	r22
    2404:	b7 95       	ror	r27
    2406:	f7 95       	ror	r31
    2408:	9e 3f       	cpi	r25, 0xFE	; 254
    240a:	08 f0       	brcs	.+2      	; 0x240e <__addsf3x+0x96>
    240c:	b3 cf       	rjmp	.-154    	; 0x2374 <__addsf3+0x1e>
    240e:	93 95       	inc	r25
    2410:	88 0f       	add	r24, r24
    2412:	08 f0       	brcs	.+2      	; 0x2416 <__addsf3x+0x9e>
    2414:	99 27       	eor	r25, r25
    2416:	ee 0f       	add	r30, r30
    2418:	97 95       	ror	r25
    241a:	87 95       	ror	r24
    241c:	08 95       	ret

0000241e <ceil>:
    241e:	7e d1       	rcall	.+764    	; 0x271c <__fp_trunc>
    2420:	80 f0       	brcs	.+32     	; 0x2442 <ceil+0x24>
    2422:	9f 37       	cpi	r25, 0x7F	; 127
    2424:	40 f4       	brcc	.+16     	; 0x2436 <ceil+0x18>
    2426:	91 11       	cpse	r25, r1
    2428:	0e f4       	brtc	.+2      	; 0x242c <ceil+0xe>
    242a:	90 c1       	rjmp	.+800    	; 0x274c <__fp_szero>
    242c:	60 e0       	ldi	r22, 0x00	; 0
    242e:	70 e0       	ldi	r23, 0x00	; 0
    2430:	80 e8       	ldi	r24, 0x80	; 128
    2432:	9f e3       	ldi	r25, 0x3F	; 63
    2434:	08 95       	ret
    2436:	26 f0       	brts	.+8      	; 0x2440 <ceil+0x22>
    2438:	1b 16       	cp	r1, r27
    243a:	61 1d       	adc	r22, r1
    243c:	71 1d       	adc	r23, r1
    243e:	81 1d       	adc	r24, r1
    2440:	00 c1       	rjmp	.+512    	; 0x2642 <__fp_mintl>
    2442:	1a c1       	rjmp	.+564    	; 0x2678 <__fp_mpack>

00002444 <__cmpsf2>:
    2444:	d4 d0       	rcall	.+424    	; 0x25ee <__fp_cmp>
    2446:	08 f4       	brcc	.+2      	; 0x244a <__cmpsf2+0x6>
    2448:	81 e0       	ldi	r24, 0x01	; 1
    244a:	08 95       	ret

0000244c <__divsf3>:
    244c:	0c d0       	rcall	.+24     	; 0x2466 <__divsf3x>
    244e:	33 c1       	rjmp	.+614    	; 0x26b6 <__fp_round>
    2450:	2b d1       	rcall	.+598    	; 0x26a8 <__fp_pscB>
    2452:	40 f0       	brcs	.+16     	; 0x2464 <__divsf3+0x18>
    2454:	22 d1       	rcall	.+580    	; 0x269a <__fp_pscA>
    2456:	30 f0       	brcs	.+12     	; 0x2464 <__divsf3+0x18>
    2458:	21 f4       	brne	.+8      	; 0x2462 <__divsf3+0x16>
    245a:	5f 3f       	cpi	r21, 0xFF	; 255
    245c:	19 f0       	breq	.+6      	; 0x2464 <__divsf3+0x18>
    245e:	eb c0       	rjmp	.+470    	; 0x2636 <__fp_inf>
    2460:	51 11       	cpse	r21, r1
    2462:	74 c1       	rjmp	.+744    	; 0x274c <__fp_szero>
    2464:	17 c1       	rjmp	.+558    	; 0x2694 <__fp_nan>

00002466 <__divsf3x>:
    2466:	38 d1       	rcall	.+624    	; 0x26d8 <__fp_split3>
    2468:	98 f3       	brcs	.-26     	; 0x2450 <__divsf3+0x4>

0000246a <__divsf3_pse>:
    246a:	99 23       	and	r25, r25
    246c:	c9 f3       	breq	.-14     	; 0x2460 <__divsf3+0x14>
    246e:	55 23       	and	r21, r21
    2470:	b1 f3       	breq	.-20     	; 0x245e <__divsf3+0x12>
    2472:	95 1b       	sub	r25, r21
    2474:	55 0b       	sbc	r21, r21
    2476:	bb 27       	eor	r27, r27
    2478:	aa 27       	eor	r26, r26
    247a:	62 17       	cp	r22, r18
    247c:	73 07       	cpc	r23, r19
    247e:	84 07       	cpc	r24, r20
    2480:	38 f0       	brcs	.+14     	; 0x2490 <__divsf3_pse+0x26>
    2482:	9f 5f       	subi	r25, 0xFF	; 255
    2484:	5f 4f       	sbci	r21, 0xFF	; 255
    2486:	22 0f       	add	r18, r18
    2488:	33 1f       	adc	r19, r19
    248a:	44 1f       	adc	r20, r20
    248c:	aa 1f       	adc	r26, r26
    248e:	a9 f3       	breq	.-22     	; 0x247a <__divsf3_pse+0x10>
    2490:	33 d0       	rcall	.+102    	; 0x24f8 <__divsf3_pse+0x8e>
    2492:	0e 2e       	mov	r0, r30
    2494:	3a f0       	brmi	.+14     	; 0x24a4 <__divsf3_pse+0x3a>
    2496:	e0 e8       	ldi	r30, 0x80	; 128
    2498:	30 d0       	rcall	.+96     	; 0x24fa <__divsf3_pse+0x90>
    249a:	91 50       	subi	r25, 0x01	; 1
    249c:	50 40       	sbci	r21, 0x00	; 0
    249e:	e6 95       	lsr	r30
    24a0:	00 1c       	adc	r0, r0
    24a2:	ca f7       	brpl	.-14     	; 0x2496 <__divsf3_pse+0x2c>
    24a4:	29 d0       	rcall	.+82     	; 0x24f8 <__divsf3_pse+0x8e>
    24a6:	fe 2f       	mov	r31, r30
    24a8:	27 d0       	rcall	.+78     	; 0x24f8 <__divsf3_pse+0x8e>
    24aa:	66 0f       	add	r22, r22
    24ac:	77 1f       	adc	r23, r23
    24ae:	88 1f       	adc	r24, r24
    24b0:	bb 1f       	adc	r27, r27
    24b2:	26 17       	cp	r18, r22
    24b4:	37 07       	cpc	r19, r23
    24b6:	48 07       	cpc	r20, r24
    24b8:	ab 07       	cpc	r26, r27
    24ba:	b0 e8       	ldi	r27, 0x80	; 128
    24bc:	09 f0       	breq	.+2      	; 0x24c0 <__divsf3_pse+0x56>
    24be:	bb 0b       	sbc	r27, r27
    24c0:	80 2d       	mov	r24, r0
    24c2:	bf 01       	movw	r22, r30
    24c4:	ff 27       	eor	r31, r31
    24c6:	93 58       	subi	r25, 0x83	; 131
    24c8:	5f 4f       	sbci	r21, 0xFF	; 255
    24ca:	2a f0       	brmi	.+10     	; 0x24d6 <__divsf3_pse+0x6c>
    24cc:	9e 3f       	cpi	r25, 0xFE	; 254
    24ce:	51 05       	cpc	r21, r1
    24d0:	68 f0       	brcs	.+26     	; 0x24ec <__divsf3_pse+0x82>
    24d2:	b1 c0       	rjmp	.+354    	; 0x2636 <__fp_inf>
    24d4:	3b c1       	rjmp	.+630    	; 0x274c <__fp_szero>
    24d6:	5f 3f       	cpi	r21, 0xFF	; 255
    24d8:	ec f3       	brlt	.-6      	; 0x24d4 <__divsf3_pse+0x6a>
    24da:	98 3e       	cpi	r25, 0xE8	; 232
    24dc:	dc f3       	brlt	.-10     	; 0x24d4 <__divsf3_pse+0x6a>
    24de:	86 95       	lsr	r24
    24e0:	77 95       	ror	r23
    24e2:	67 95       	ror	r22
    24e4:	b7 95       	ror	r27
    24e6:	f7 95       	ror	r31
    24e8:	9f 5f       	subi	r25, 0xFF	; 255
    24ea:	c9 f7       	brne	.-14     	; 0x24de <__divsf3_pse+0x74>
    24ec:	88 0f       	add	r24, r24
    24ee:	91 1d       	adc	r25, r1
    24f0:	96 95       	lsr	r25
    24f2:	87 95       	ror	r24
    24f4:	97 f9       	bld	r25, 7
    24f6:	08 95       	ret
    24f8:	e1 e0       	ldi	r30, 0x01	; 1
    24fa:	66 0f       	add	r22, r22
    24fc:	77 1f       	adc	r23, r23
    24fe:	88 1f       	adc	r24, r24
    2500:	bb 1f       	adc	r27, r27
    2502:	62 17       	cp	r22, r18
    2504:	73 07       	cpc	r23, r19
    2506:	84 07       	cpc	r24, r20
    2508:	ba 07       	cpc	r27, r26
    250a:	20 f0       	brcs	.+8      	; 0x2514 <__divsf3_pse+0xaa>
    250c:	62 1b       	sub	r22, r18
    250e:	73 0b       	sbc	r23, r19
    2510:	84 0b       	sbc	r24, r20
    2512:	ba 0b       	sbc	r27, r26
    2514:	ee 1f       	adc	r30, r30
    2516:	88 f7       	brcc	.-30     	; 0x24fa <__divsf3_pse+0x90>
    2518:	e0 95       	com	r30
    251a:	08 95       	ret

0000251c <__fixunssfsi>:
    251c:	e5 d0       	rcall	.+458    	; 0x26e8 <__fp_splitA>
    251e:	88 f0       	brcs	.+34     	; 0x2542 <__fixunssfsi+0x26>
    2520:	9f 57       	subi	r25, 0x7F	; 127
    2522:	90 f0       	brcs	.+36     	; 0x2548 <__fixunssfsi+0x2c>
    2524:	b9 2f       	mov	r27, r25
    2526:	99 27       	eor	r25, r25
    2528:	b7 51       	subi	r27, 0x17	; 23
    252a:	a0 f0       	brcs	.+40     	; 0x2554 <__fixunssfsi+0x38>
    252c:	d1 f0       	breq	.+52     	; 0x2562 <__fixunssfsi+0x46>
    252e:	66 0f       	add	r22, r22
    2530:	77 1f       	adc	r23, r23
    2532:	88 1f       	adc	r24, r24
    2534:	99 1f       	adc	r25, r25
    2536:	1a f0       	brmi	.+6      	; 0x253e <__fixunssfsi+0x22>
    2538:	ba 95       	dec	r27
    253a:	c9 f7       	brne	.-14     	; 0x252e <__fixunssfsi+0x12>
    253c:	12 c0       	rjmp	.+36     	; 0x2562 <__fixunssfsi+0x46>
    253e:	b1 30       	cpi	r27, 0x01	; 1
    2540:	81 f0       	breq	.+32     	; 0x2562 <__fixunssfsi+0x46>
    2542:	03 d1       	rcall	.+518    	; 0x274a <__fp_zero>
    2544:	b1 e0       	ldi	r27, 0x01	; 1
    2546:	08 95       	ret
    2548:	00 c1       	rjmp	.+512    	; 0x274a <__fp_zero>
    254a:	67 2f       	mov	r22, r23
    254c:	78 2f       	mov	r23, r24
    254e:	88 27       	eor	r24, r24
    2550:	b8 5f       	subi	r27, 0xF8	; 248
    2552:	39 f0       	breq	.+14     	; 0x2562 <__fixunssfsi+0x46>
    2554:	b9 3f       	cpi	r27, 0xF9	; 249
    2556:	cc f3       	brlt	.-14     	; 0x254a <__fixunssfsi+0x2e>
    2558:	86 95       	lsr	r24
    255a:	77 95       	ror	r23
    255c:	67 95       	ror	r22
    255e:	b3 95       	inc	r27
    2560:	d9 f7       	brne	.-10     	; 0x2558 <__fixunssfsi+0x3c>
    2562:	3e f4       	brtc	.+14     	; 0x2572 <__fixunssfsi+0x56>
    2564:	90 95       	com	r25
    2566:	80 95       	com	r24
    2568:	70 95       	com	r23
    256a:	61 95       	neg	r22
    256c:	7f 4f       	sbci	r23, 0xFF	; 255
    256e:	8f 4f       	sbci	r24, 0xFF	; 255
    2570:	9f 4f       	sbci	r25, 0xFF	; 255
    2572:	08 95       	ret

00002574 <__floatunsisf>:
    2574:	e8 94       	clt
    2576:	09 c0       	rjmp	.+18     	; 0x258a <__floatsisf+0x12>

00002578 <__floatsisf>:
    2578:	97 fb       	bst	r25, 7
    257a:	3e f4       	brtc	.+14     	; 0x258a <__floatsisf+0x12>
    257c:	90 95       	com	r25
    257e:	80 95       	com	r24
    2580:	70 95       	com	r23
    2582:	61 95       	neg	r22
    2584:	7f 4f       	sbci	r23, 0xFF	; 255
    2586:	8f 4f       	sbci	r24, 0xFF	; 255
    2588:	9f 4f       	sbci	r25, 0xFF	; 255
    258a:	99 23       	and	r25, r25
    258c:	a9 f0       	breq	.+42     	; 0x25b8 <__floatsisf+0x40>
    258e:	f9 2f       	mov	r31, r25
    2590:	96 e9       	ldi	r25, 0x96	; 150
    2592:	bb 27       	eor	r27, r27
    2594:	93 95       	inc	r25
    2596:	f6 95       	lsr	r31
    2598:	87 95       	ror	r24
    259a:	77 95       	ror	r23
    259c:	67 95       	ror	r22
    259e:	b7 95       	ror	r27
    25a0:	f1 11       	cpse	r31, r1
    25a2:	f8 cf       	rjmp	.-16     	; 0x2594 <__floatsisf+0x1c>
    25a4:	fa f4       	brpl	.+62     	; 0x25e4 <__floatsisf+0x6c>
    25a6:	bb 0f       	add	r27, r27
    25a8:	11 f4       	brne	.+4      	; 0x25ae <__floatsisf+0x36>
    25aa:	60 ff       	sbrs	r22, 0
    25ac:	1b c0       	rjmp	.+54     	; 0x25e4 <__floatsisf+0x6c>
    25ae:	6f 5f       	subi	r22, 0xFF	; 255
    25b0:	7f 4f       	sbci	r23, 0xFF	; 255
    25b2:	8f 4f       	sbci	r24, 0xFF	; 255
    25b4:	9f 4f       	sbci	r25, 0xFF	; 255
    25b6:	16 c0       	rjmp	.+44     	; 0x25e4 <__floatsisf+0x6c>
    25b8:	88 23       	and	r24, r24
    25ba:	11 f0       	breq	.+4      	; 0x25c0 <__floatsisf+0x48>
    25bc:	96 e9       	ldi	r25, 0x96	; 150
    25be:	11 c0       	rjmp	.+34     	; 0x25e2 <__floatsisf+0x6a>
    25c0:	77 23       	and	r23, r23
    25c2:	21 f0       	breq	.+8      	; 0x25cc <__floatsisf+0x54>
    25c4:	9e e8       	ldi	r25, 0x8E	; 142
    25c6:	87 2f       	mov	r24, r23
    25c8:	76 2f       	mov	r23, r22
    25ca:	05 c0       	rjmp	.+10     	; 0x25d6 <__floatsisf+0x5e>
    25cc:	66 23       	and	r22, r22
    25ce:	71 f0       	breq	.+28     	; 0x25ec <__floatsisf+0x74>
    25d0:	96 e8       	ldi	r25, 0x86	; 134
    25d2:	86 2f       	mov	r24, r22
    25d4:	70 e0       	ldi	r23, 0x00	; 0
    25d6:	60 e0       	ldi	r22, 0x00	; 0
    25d8:	2a f0       	brmi	.+10     	; 0x25e4 <__floatsisf+0x6c>
    25da:	9a 95       	dec	r25
    25dc:	66 0f       	add	r22, r22
    25de:	77 1f       	adc	r23, r23
    25e0:	88 1f       	adc	r24, r24
    25e2:	da f7       	brpl	.-10     	; 0x25da <__floatsisf+0x62>
    25e4:	88 0f       	add	r24, r24
    25e6:	96 95       	lsr	r25
    25e8:	87 95       	ror	r24
    25ea:	97 f9       	bld	r25, 7
    25ec:	08 95       	ret

000025ee <__fp_cmp>:
    25ee:	99 0f       	add	r25, r25
    25f0:	00 08       	sbc	r0, r0
    25f2:	55 0f       	add	r21, r21
    25f4:	aa 0b       	sbc	r26, r26
    25f6:	e0 e8       	ldi	r30, 0x80	; 128
    25f8:	fe ef       	ldi	r31, 0xFE	; 254
    25fa:	16 16       	cp	r1, r22
    25fc:	17 06       	cpc	r1, r23
    25fe:	e8 07       	cpc	r30, r24
    2600:	f9 07       	cpc	r31, r25
    2602:	c0 f0       	brcs	.+48     	; 0x2634 <__fp_cmp+0x46>
    2604:	12 16       	cp	r1, r18
    2606:	13 06       	cpc	r1, r19
    2608:	e4 07       	cpc	r30, r20
    260a:	f5 07       	cpc	r31, r21
    260c:	98 f0       	brcs	.+38     	; 0x2634 <__fp_cmp+0x46>
    260e:	62 1b       	sub	r22, r18
    2610:	73 0b       	sbc	r23, r19
    2612:	84 0b       	sbc	r24, r20
    2614:	95 0b       	sbc	r25, r21
    2616:	39 f4       	brne	.+14     	; 0x2626 <__fp_cmp+0x38>
    2618:	0a 26       	eor	r0, r26
    261a:	61 f0       	breq	.+24     	; 0x2634 <__fp_cmp+0x46>
    261c:	23 2b       	or	r18, r19
    261e:	24 2b       	or	r18, r20
    2620:	25 2b       	or	r18, r21
    2622:	21 f4       	brne	.+8      	; 0x262c <__fp_cmp+0x3e>
    2624:	08 95       	ret
    2626:	0a 26       	eor	r0, r26
    2628:	09 f4       	brne	.+2      	; 0x262c <__fp_cmp+0x3e>
    262a:	a1 40       	sbci	r26, 0x01	; 1
    262c:	a6 95       	lsr	r26
    262e:	8f ef       	ldi	r24, 0xFF	; 255
    2630:	81 1d       	adc	r24, r1
    2632:	81 1d       	adc	r24, r1
    2634:	08 95       	ret

00002636 <__fp_inf>:
    2636:	97 f9       	bld	r25, 7
    2638:	9f 67       	ori	r25, 0x7F	; 127
    263a:	80 e8       	ldi	r24, 0x80	; 128
    263c:	70 e0       	ldi	r23, 0x00	; 0
    263e:	60 e0       	ldi	r22, 0x00	; 0
    2640:	08 95       	ret

00002642 <__fp_mintl>:
    2642:	88 23       	and	r24, r24
    2644:	71 f4       	brne	.+28     	; 0x2662 <__fp_mintl+0x20>
    2646:	77 23       	and	r23, r23
    2648:	21 f0       	breq	.+8      	; 0x2652 <__fp_mintl+0x10>
    264a:	98 50       	subi	r25, 0x08	; 8
    264c:	87 2b       	or	r24, r23
    264e:	76 2f       	mov	r23, r22
    2650:	07 c0       	rjmp	.+14     	; 0x2660 <__fp_mintl+0x1e>
    2652:	66 23       	and	r22, r22
    2654:	11 f4       	brne	.+4      	; 0x265a <__fp_mintl+0x18>
    2656:	99 27       	eor	r25, r25
    2658:	0d c0       	rjmp	.+26     	; 0x2674 <__fp_mintl+0x32>
    265a:	90 51       	subi	r25, 0x10	; 16
    265c:	86 2b       	or	r24, r22
    265e:	70 e0       	ldi	r23, 0x00	; 0
    2660:	60 e0       	ldi	r22, 0x00	; 0
    2662:	2a f0       	brmi	.+10     	; 0x266e <__fp_mintl+0x2c>
    2664:	9a 95       	dec	r25
    2666:	66 0f       	add	r22, r22
    2668:	77 1f       	adc	r23, r23
    266a:	88 1f       	adc	r24, r24
    266c:	da f7       	brpl	.-10     	; 0x2664 <__fp_mintl+0x22>
    266e:	88 0f       	add	r24, r24
    2670:	96 95       	lsr	r25
    2672:	87 95       	ror	r24
    2674:	97 f9       	bld	r25, 7
    2676:	08 95       	ret

00002678 <__fp_mpack>:
    2678:	9f 3f       	cpi	r25, 0xFF	; 255
    267a:	31 f0       	breq	.+12     	; 0x2688 <__fp_mpack_finite+0xc>

0000267c <__fp_mpack_finite>:
    267c:	91 50       	subi	r25, 0x01	; 1
    267e:	20 f4       	brcc	.+8      	; 0x2688 <__fp_mpack_finite+0xc>
    2680:	87 95       	ror	r24
    2682:	77 95       	ror	r23
    2684:	67 95       	ror	r22
    2686:	b7 95       	ror	r27
    2688:	88 0f       	add	r24, r24
    268a:	91 1d       	adc	r25, r1
    268c:	96 95       	lsr	r25
    268e:	87 95       	ror	r24
    2690:	97 f9       	bld	r25, 7
    2692:	08 95       	ret

00002694 <__fp_nan>:
    2694:	9f ef       	ldi	r25, 0xFF	; 255
    2696:	80 ec       	ldi	r24, 0xC0	; 192
    2698:	08 95       	ret

0000269a <__fp_pscA>:
    269a:	00 24       	eor	r0, r0
    269c:	0a 94       	dec	r0
    269e:	16 16       	cp	r1, r22
    26a0:	17 06       	cpc	r1, r23
    26a2:	18 06       	cpc	r1, r24
    26a4:	09 06       	cpc	r0, r25
    26a6:	08 95       	ret

000026a8 <__fp_pscB>:
    26a8:	00 24       	eor	r0, r0
    26aa:	0a 94       	dec	r0
    26ac:	12 16       	cp	r1, r18
    26ae:	13 06       	cpc	r1, r19
    26b0:	14 06       	cpc	r1, r20
    26b2:	05 06       	cpc	r0, r21
    26b4:	08 95       	ret

000026b6 <__fp_round>:
    26b6:	09 2e       	mov	r0, r25
    26b8:	03 94       	inc	r0
    26ba:	00 0c       	add	r0, r0
    26bc:	11 f4       	brne	.+4      	; 0x26c2 <__fp_round+0xc>
    26be:	88 23       	and	r24, r24
    26c0:	52 f0       	brmi	.+20     	; 0x26d6 <__fp_round+0x20>
    26c2:	bb 0f       	add	r27, r27
    26c4:	40 f4       	brcc	.+16     	; 0x26d6 <__fp_round+0x20>
    26c6:	bf 2b       	or	r27, r31
    26c8:	11 f4       	brne	.+4      	; 0x26ce <__fp_round+0x18>
    26ca:	60 ff       	sbrs	r22, 0
    26cc:	04 c0       	rjmp	.+8      	; 0x26d6 <__fp_round+0x20>
    26ce:	6f 5f       	subi	r22, 0xFF	; 255
    26d0:	7f 4f       	sbci	r23, 0xFF	; 255
    26d2:	8f 4f       	sbci	r24, 0xFF	; 255
    26d4:	9f 4f       	sbci	r25, 0xFF	; 255
    26d6:	08 95       	ret

000026d8 <__fp_split3>:
    26d8:	57 fd       	sbrc	r21, 7
    26da:	90 58       	subi	r25, 0x80	; 128
    26dc:	44 0f       	add	r20, r20
    26de:	55 1f       	adc	r21, r21
    26e0:	59 f0       	breq	.+22     	; 0x26f8 <__fp_splitA+0x10>
    26e2:	5f 3f       	cpi	r21, 0xFF	; 255
    26e4:	71 f0       	breq	.+28     	; 0x2702 <__fp_splitA+0x1a>
    26e6:	47 95       	ror	r20

000026e8 <__fp_splitA>:
    26e8:	88 0f       	add	r24, r24
    26ea:	97 fb       	bst	r25, 7
    26ec:	99 1f       	adc	r25, r25
    26ee:	61 f0       	breq	.+24     	; 0x2708 <__fp_splitA+0x20>
    26f0:	9f 3f       	cpi	r25, 0xFF	; 255
    26f2:	79 f0       	breq	.+30     	; 0x2712 <__fp_splitA+0x2a>
    26f4:	87 95       	ror	r24
    26f6:	08 95       	ret
    26f8:	12 16       	cp	r1, r18
    26fa:	13 06       	cpc	r1, r19
    26fc:	14 06       	cpc	r1, r20
    26fe:	55 1f       	adc	r21, r21
    2700:	f2 cf       	rjmp	.-28     	; 0x26e6 <__fp_split3+0xe>
    2702:	46 95       	lsr	r20
    2704:	f1 df       	rcall	.-30     	; 0x26e8 <__fp_splitA>
    2706:	08 c0       	rjmp	.+16     	; 0x2718 <__fp_splitA+0x30>
    2708:	16 16       	cp	r1, r22
    270a:	17 06       	cpc	r1, r23
    270c:	18 06       	cpc	r1, r24
    270e:	99 1f       	adc	r25, r25
    2710:	f1 cf       	rjmp	.-30     	; 0x26f4 <__fp_splitA+0xc>
    2712:	86 95       	lsr	r24
    2714:	71 05       	cpc	r23, r1
    2716:	61 05       	cpc	r22, r1
    2718:	08 94       	sec
    271a:	08 95       	ret

0000271c <__fp_trunc>:
    271c:	e5 df       	rcall	.-54     	; 0x26e8 <__fp_splitA>
    271e:	a0 f0       	brcs	.+40     	; 0x2748 <__fp_trunc+0x2c>
    2720:	be e7       	ldi	r27, 0x7E	; 126
    2722:	b9 17       	cp	r27, r25
    2724:	88 f4       	brcc	.+34     	; 0x2748 <__fp_trunc+0x2c>
    2726:	bb 27       	eor	r27, r27
    2728:	9f 38       	cpi	r25, 0x8F	; 143
    272a:	60 f4       	brcc	.+24     	; 0x2744 <__fp_trunc+0x28>
    272c:	16 16       	cp	r1, r22
    272e:	b1 1d       	adc	r27, r1
    2730:	67 2f       	mov	r22, r23
    2732:	78 2f       	mov	r23, r24
    2734:	88 27       	eor	r24, r24
    2736:	98 5f       	subi	r25, 0xF8	; 248
    2738:	f7 cf       	rjmp	.-18     	; 0x2728 <__fp_trunc+0xc>
    273a:	86 95       	lsr	r24
    273c:	77 95       	ror	r23
    273e:	67 95       	ror	r22
    2740:	b1 1d       	adc	r27, r1
    2742:	93 95       	inc	r25
    2744:	96 39       	cpi	r25, 0x96	; 150
    2746:	c8 f3       	brcs	.-14     	; 0x273a <__fp_trunc+0x1e>
    2748:	08 95       	ret

0000274a <__fp_zero>:
    274a:	e8 94       	clt

0000274c <__fp_szero>:
    274c:	bb 27       	eor	r27, r27
    274e:	66 27       	eor	r22, r22
    2750:	77 27       	eor	r23, r23
    2752:	cb 01       	movw	r24, r22
    2754:	97 f9       	bld	r25, 7
    2756:	08 95       	ret

00002758 <__gesf2>:
    2758:	4a df       	rcall	.-364    	; 0x25ee <__fp_cmp>
    275a:	08 f4       	brcc	.+2      	; 0x275e <__gesf2+0x6>
    275c:	8f ef       	ldi	r24, 0xFF	; 255
    275e:	08 95       	ret

00002760 <__mulsf3>:
    2760:	0b d0       	rcall	.+22     	; 0x2778 <__mulsf3x>
    2762:	a9 cf       	rjmp	.-174    	; 0x26b6 <__fp_round>
    2764:	9a df       	rcall	.-204    	; 0x269a <__fp_pscA>
    2766:	28 f0       	brcs	.+10     	; 0x2772 <__mulsf3+0x12>
    2768:	9f df       	rcall	.-194    	; 0x26a8 <__fp_pscB>
    276a:	18 f0       	brcs	.+6      	; 0x2772 <__mulsf3+0x12>
    276c:	95 23       	and	r25, r21
    276e:	09 f0       	breq	.+2      	; 0x2772 <__mulsf3+0x12>
    2770:	62 cf       	rjmp	.-316    	; 0x2636 <__fp_inf>
    2772:	90 cf       	rjmp	.-224    	; 0x2694 <__fp_nan>
    2774:	11 24       	eor	r1, r1
    2776:	ea cf       	rjmp	.-44     	; 0x274c <__fp_szero>

00002778 <__mulsf3x>:
    2778:	af df       	rcall	.-162    	; 0x26d8 <__fp_split3>
    277a:	a0 f3       	brcs	.-24     	; 0x2764 <__mulsf3+0x4>

0000277c <__mulsf3_pse>:
    277c:	95 9f       	mul	r25, r21
    277e:	d1 f3       	breq	.-12     	; 0x2774 <__mulsf3+0x14>
    2780:	95 0f       	add	r25, r21
    2782:	50 e0       	ldi	r21, 0x00	; 0
    2784:	55 1f       	adc	r21, r21
    2786:	62 9f       	mul	r22, r18
    2788:	f0 01       	movw	r30, r0
    278a:	72 9f       	mul	r23, r18
    278c:	bb 27       	eor	r27, r27
    278e:	f0 0d       	add	r31, r0
    2790:	b1 1d       	adc	r27, r1
    2792:	63 9f       	mul	r22, r19
    2794:	aa 27       	eor	r26, r26
    2796:	f0 0d       	add	r31, r0
    2798:	b1 1d       	adc	r27, r1
    279a:	aa 1f       	adc	r26, r26
    279c:	64 9f       	mul	r22, r20
    279e:	66 27       	eor	r22, r22
    27a0:	b0 0d       	add	r27, r0
    27a2:	a1 1d       	adc	r26, r1
    27a4:	66 1f       	adc	r22, r22
    27a6:	82 9f       	mul	r24, r18
    27a8:	22 27       	eor	r18, r18
    27aa:	b0 0d       	add	r27, r0
    27ac:	a1 1d       	adc	r26, r1
    27ae:	62 1f       	adc	r22, r18
    27b0:	73 9f       	mul	r23, r19
    27b2:	b0 0d       	add	r27, r0
    27b4:	a1 1d       	adc	r26, r1
    27b6:	62 1f       	adc	r22, r18
    27b8:	83 9f       	mul	r24, r19
    27ba:	a0 0d       	add	r26, r0
    27bc:	61 1d       	adc	r22, r1
    27be:	22 1f       	adc	r18, r18
    27c0:	74 9f       	mul	r23, r20
    27c2:	33 27       	eor	r19, r19
    27c4:	a0 0d       	add	r26, r0
    27c6:	61 1d       	adc	r22, r1
    27c8:	23 1f       	adc	r18, r19
    27ca:	84 9f       	mul	r24, r20
    27cc:	60 0d       	add	r22, r0
    27ce:	21 1d       	adc	r18, r1
    27d0:	82 2f       	mov	r24, r18
    27d2:	76 2f       	mov	r23, r22
    27d4:	6a 2f       	mov	r22, r26
    27d6:	11 24       	eor	r1, r1
    27d8:	9f 57       	subi	r25, 0x7F	; 127
    27da:	50 40       	sbci	r21, 0x00	; 0
    27dc:	8a f0       	brmi	.+34     	; 0x2800 <__mulsf3_pse+0x84>
    27de:	e1 f0       	breq	.+56     	; 0x2818 <__mulsf3_pse+0x9c>
    27e0:	88 23       	and	r24, r24
    27e2:	4a f0       	brmi	.+18     	; 0x27f6 <__mulsf3_pse+0x7a>
    27e4:	ee 0f       	add	r30, r30
    27e6:	ff 1f       	adc	r31, r31
    27e8:	bb 1f       	adc	r27, r27
    27ea:	66 1f       	adc	r22, r22
    27ec:	77 1f       	adc	r23, r23
    27ee:	88 1f       	adc	r24, r24
    27f0:	91 50       	subi	r25, 0x01	; 1
    27f2:	50 40       	sbci	r21, 0x00	; 0
    27f4:	a9 f7       	brne	.-22     	; 0x27e0 <__mulsf3_pse+0x64>
    27f6:	9e 3f       	cpi	r25, 0xFE	; 254
    27f8:	51 05       	cpc	r21, r1
    27fa:	70 f0       	brcs	.+28     	; 0x2818 <__mulsf3_pse+0x9c>
    27fc:	1c cf       	rjmp	.-456    	; 0x2636 <__fp_inf>
    27fe:	a6 cf       	rjmp	.-180    	; 0x274c <__fp_szero>
    2800:	5f 3f       	cpi	r21, 0xFF	; 255
    2802:	ec f3       	brlt	.-6      	; 0x27fe <__mulsf3_pse+0x82>
    2804:	98 3e       	cpi	r25, 0xE8	; 232
    2806:	dc f3       	brlt	.-10     	; 0x27fe <__mulsf3_pse+0x82>
    2808:	86 95       	lsr	r24
    280a:	77 95       	ror	r23
    280c:	67 95       	ror	r22
    280e:	b7 95       	ror	r27
    2810:	f7 95       	ror	r31
    2812:	e7 95       	ror	r30
    2814:	9f 5f       	subi	r25, 0xFF	; 255
    2816:	c1 f7       	brne	.-16     	; 0x2808 <__mulsf3_pse+0x8c>
    2818:	fe 2b       	or	r31, r30
    281a:	88 0f       	add	r24, r24
    281c:	91 1d       	adc	r25, r1
    281e:	96 95       	lsr	r25
    2820:	87 95       	ror	r24
    2822:	97 f9       	bld	r25, 7
    2824:	08 95       	ret

00002826 <vfprintf>:
    2826:	2f 92       	push	r2
    2828:	3f 92       	push	r3
    282a:	4f 92       	push	r4
    282c:	5f 92       	push	r5
    282e:	6f 92       	push	r6
    2830:	7f 92       	push	r7
    2832:	8f 92       	push	r8
    2834:	9f 92       	push	r9
    2836:	af 92       	push	r10
    2838:	bf 92       	push	r11
    283a:	cf 92       	push	r12
    283c:	df 92       	push	r13
    283e:	ef 92       	push	r14
    2840:	ff 92       	push	r15
    2842:	0f 93       	push	r16
    2844:	1f 93       	push	r17
    2846:	cf 93       	push	r28
    2848:	df 93       	push	r29
    284a:	cd b7       	in	r28, 0x3d	; 61
    284c:	de b7       	in	r29, 0x3e	; 62
    284e:	60 97       	sbiw	r28, 0x10	; 16
    2850:	0f b6       	in	r0, 0x3f	; 63
    2852:	f8 94       	cli
    2854:	de bf       	out	0x3e, r29	; 62
    2856:	0f be       	out	0x3f, r0	; 63
    2858:	cd bf       	out	0x3d, r28	; 61
    285a:	7c 01       	movw	r14, r24
    285c:	1b 01       	movw	r2, r22
    285e:	6a 01       	movw	r12, r20
    2860:	fc 01       	movw	r30, r24
    2862:	17 82       	std	Z+7, r1	; 0x07
    2864:	16 82       	std	Z+6, r1	; 0x06
    2866:	83 81       	ldd	r24, Z+3	; 0x03
    2868:	81 ff       	sbrs	r24, 1
    286a:	2a c3       	rjmp	.+1620   	; 0x2ec0 <vfprintf+0x69a>
    286c:	9e 01       	movw	r18, r28
    286e:	2f 5f       	subi	r18, 0xFF	; 255
    2870:	3f 4f       	sbci	r19, 0xFF	; 255
    2872:	39 01       	movw	r6, r18
    2874:	f7 01       	movw	r30, r14
    2876:	93 81       	ldd	r25, Z+3	; 0x03
    2878:	f1 01       	movw	r30, r2
    287a:	93 fd       	sbrc	r25, 3
    287c:	85 91       	lpm	r24, Z+
    287e:	93 ff       	sbrs	r25, 3
    2880:	81 91       	ld	r24, Z+
    2882:	1f 01       	movw	r2, r30
    2884:	88 23       	and	r24, r24
    2886:	09 f4       	brne	.+2      	; 0x288a <vfprintf+0x64>
    2888:	17 c3       	rjmp	.+1582   	; 0x2eb8 <vfprintf+0x692>
    288a:	85 32       	cpi	r24, 0x25	; 37
    288c:	39 f4       	brne	.+14     	; 0x289c <vfprintf+0x76>
    288e:	93 fd       	sbrc	r25, 3
    2890:	85 91       	lpm	r24, Z+
    2892:	93 ff       	sbrs	r25, 3
    2894:	81 91       	ld	r24, Z+
    2896:	1f 01       	movw	r2, r30
    2898:	85 32       	cpi	r24, 0x25	; 37
    289a:	31 f4       	brne	.+12     	; 0x28a8 <vfprintf+0x82>
    289c:	b7 01       	movw	r22, r14
    289e:	90 e0       	ldi	r25, 0x00	; 0
    28a0:	5b d4       	rcall	.+2230   	; 0x3158 <fputc>
    28a2:	56 01       	movw	r10, r12
    28a4:	65 01       	movw	r12, r10
    28a6:	e6 cf       	rjmp	.-52     	; 0x2874 <vfprintf+0x4e>
    28a8:	10 e0       	ldi	r17, 0x00	; 0
    28aa:	51 2c       	mov	r5, r1
    28ac:	91 2c       	mov	r9, r1
    28ae:	ff e1       	ldi	r31, 0x1F	; 31
    28b0:	f9 15       	cp	r31, r9
    28b2:	d8 f0       	brcs	.+54     	; 0x28ea <vfprintf+0xc4>
    28b4:	8b 32       	cpi	r24, 0x2B	; 43
    28b6:	79 f0       	breq	.+30     	; 0x28d6 <vfprintf+0xb0>
    28b8:	38 f4       	brcc	.+14     	; 0x28c8 <vfprintf+0xa2>
    28ba:	80 32       	cpi	r24, 0x20	; 32
    28bc:	79 f0       	breq	.+30     	; 0x28dc <vfprintf+0xb6>
    28be:	83 32       	cpi	r24, 0x23	; 35
    28c0:	a1 f4       	brne	.+40     	; 0x28ea <vfprintf+0xc4>
    28c2:	f9 2d       	mov	r31, r9
    28c4:	f0 61       	ori	r31, 0x10	; 16
    28c6:	2e c0       	rjmp	.+92     	; 0x2924 <vfprintf+0xfe>
    28c8:	8d 32       	cpi	r24, 0x2D	; 45
    28ca:	61 f0       	breq	.+24     	; 0x28e4 <vfprintf+0xbe>
    28cc:	80 33       	cpi	r24, 0x30	; 48
    28ce:	69 f4       	brne	.+26     	; 0x28ea <vfprintf+0xc4>
    28d0:	29 2d       	mov	r18, r9
    28d2:	21 60       	ori	r18, 0x01	; 1
    28d4:	2d c0       	rjmp	.+90     	; 0x2930 <vfprintf+0x10a>
    28d6:	39 2d       	mov	r19, r9
    28d8:	32 60       	ori	r19, 0x02	; 2
    28da:	93 2e       	mov	r9, r19
    28dc:	89 2d       	mov	r24, r9
    28de:	84 60       	ori	r24, 0x04	; 4
    28e0:	98 2e       	mov	r9, r24
    28e2:	2a c0       	rjmp	.+84     	; 0x2938 <vfprintf+0x112>
    28e4:	e9 2d       	mov	r30, r9
    28e6:	e8 60       	ori	r30, 0x08	; 8
    28e8:	15 c0       	rjmp	.+42     	; 0x2914 <vfprintf+0xee>
    28ea:	97 fc       	sbrc	r9, 7
    28ec:	2d c0       	rjmp	.+90     	; 0x2948 <vfprintf+0x122>
    28ee:	20 ed       	ldi	r18, 0xD0	; 208
    28f0:	28 0f       	add	r18, r24
    28f2:	2a 30       	cpi	r18, 0x0A	; 10
    28f4:	88 f4       	brcc	.+34     	; 0x2918 <vfprintf+0xf2>
    28f6:	96 fe       	sbrs	r9, 6
    28f8:	06 c0       	rjmp	.+12     	; 0x2906 <vfprintf+0xe0>
    28fa:	3a e0       	ldi	r19, 0x0A	; 10
    28fc:	13 9f       	mul	r17, r19
    28fe:	20 0d       	add	r18, r0
    2900:	11 24       	eor	r1, r1
    2902:	12 2f       	mov	r17, r18
    2904:	19 c0       	rjmp	.+50     	; 0x2938 <vfprintf+0x112>
    2906:	8a e0       	ldi	r24, 0x0A	; 10
    2908:	58 9e       	mul	r5, r24
    290a:	20 0d       	add	r18, r0
    290c:	11 24       	eor	r1, r1
    290e:	52 2e       	mov	r5, r18
    2910:	e9 2d       	mov	r30, r9
    2912:	e0 62       	ori	r30, 0x20	; 32
    2914:	9e 2e       	mov	r9, r30
    2916:	10 c0       	rjmp	.+32     	; 0x2938 <vfprintf+0x112>
    2918:	8e 32       	cpi	r24, 0x2E	; 46
    291a:	31 f4       	brne	.+12     	; 0x2928 <vfprintf+0x102>
    291c:	96 fc       	sbrc	r9, 6
    291e:	cc c2       	rjmp	.+1432   	; 0x2eb8 <vfprintf+0x692>
    2920:	f9 2d       	mov	r31, r9
    2922:	f0 64       	ori	r31, 0x40	; 64
    2924:	9f 2e       	mov	r9, r31
    2926:	08 c0       	rjmp	.+16     	; 0x2938 <vfprintf+0x112>
    2928:	8c 36       	cpi	r24, 0x6C	; 108
    292a:	21 f4       	brne	.+8      	; 0x2934 <vfprintf+0x10e>
    292c:	29 2d       	mov	r18, r9
    292e:	20 68       	ori	r18, 0x80	; 128
    2930:	92 2e       	mov	r9, r18
    2932:	02 c0       	rjmp	.+4      	; 0x2938 <vfprintf+0x112>
    2934:	88 36       	cpi	r24, 0x68	; 104
    2936:	41 f4       	brne	.+16     	; 0x2948 <vfprintf+0x122>
    2938:	f1 01       	movw	r30, r2
    293a:	93 fd       	sbrc	r25, 3
    293c:	85 91       	lpm	r24, Z+
    293e:	93 ff       	sbrs	r25, 3
    2940:	81 91       	ld	r24, Z+
    2942:	1f 01       	movw	r2, r30
    2944:	81 11       	cpse	r24, r1
    2946:	b3 cf       	rjmp	.-154    	; 0x28ae <vfprintf+0x88>
    2948:	9b eb       	ldi	r25, 0xBB	; 187
    294a:	98 0f       	add	r25, r24
    294c:	93 30       	cpi	r25, 0x03	; 3
    294e:	20 f4       	brcc	.+8      	; 0x2958 <vfprintf+0x132>
    2950:	99 2d       	mov	r25, r9
    2952:	90 61       	ori	r25, 0x10	; 16
    2954:	80 5e       	subi	r24, 0xE0	; 224
    2956:	07 c0       	rjmp	.+14     	; 0x2966 <vfprintf+0x140>
    2958:	9b e9       	ldi	r25, 0x9B	; 155
    295a:	98 0f       	add	r25, r24
    295c:	93 30       	cpi	r25, 0x03	; 3
    295e:	08 f0       	brcs	.+2      	; 0x2962 <vfprintf+0x13c>
    2960:	59 c1       	rjmp	.+690    	; 0x2c14 <vfprintf+0x3ee>
    2962:	99 2d       	mov	r25, r9
    2964:	9f 7e       	andi	r25, 0xEF	; 239
    2966:	96 ff       	sbrs	r25, 6
    2968:	16 e0       	ldi	r17, 0x06	; 6
    296a:	9f 73       	andi	r25, 0x3F	; 63
    296c:	99 2e       	mov	r9, r25
    296e:	85 36       	cpi	r24, 0x65	; 101
    2970:	19 f4       	brne	.+6      	; 0x2978 <vfprintf+0x152>
    2972:	90 64       	ori	r25, 0x40	; 64
    2974:	99 2e       	mov	r9, r25
    2976:	08 c0       	rjmp	.+16     	; 0x2988 <vfprintf+0x162>
    2978:	86 36       	cpi	r24, 0x66	; 102
    297a:	21 f4       	brne	.+8      	; 0x2984 <vfprintf+0x15e>
    297c:	39 2f       	mov	r19, r25
    297e:	30 68       	ori	r19, 0x80	; 128
    2980:	93 2e       	mov	r9, r19
    2982:	02 c0       	rjmp	.+4      	; 0x2988 <vfprintf+0x162>
    2984:	11 11       	cpse	r17, r1
    2986:	11 50       	subi	r17, 0x01	; 1
    2988:	97 fe       	sbrs	r9, 7
    298a:	07 c0       	rjmp	.+14     	; 0x299a <vfprintf+0x174>
    298c:	1c 33       	cpi	r17, 0x3C	; 60
    298e:	50 f4       	brcc	.+20     	; 0x29a4 <vfprintf+0x17e>
    2990:	44 24       	eor	r4, r4
    2992:	43 94       	inc	r4
    2994:	41 0e       	add	r4, r17
    2996:	27 e0       	ldi	r18, 0x07	; 7
    2998:	0b c0       	rjmp	.+22     	; 0x29b0 <vfprintf+0x18a>
    299a:	18 30       	cpi	r17, 0x08	; 8
    299c:	38 f0       	brcs	.+14     	; 0x29ac <vfprintf+0x186>
    299e:	27 e0       	ldi	r18, 0x07	; 7
    29a0:	17 e0       	ldi	r17, 0x07	; 7
    29a2:	05 c0       	rjmp	.+10     	; 0x29ae <vfprintf+0x188>
    29a4:	27 e0       	ldi	r18, 0x07	; 7
    29a6:	9c e3       	ldi	r25, 0x3C	; 60
    29a8:	49 2e       	mov	r4, r25
    29aa:	02 c0       	rjmp	.+4      	; 0x29b0 <vfprintf+0x18a>
    29ac:	21 2f       	mov	r18, r17
    29ae:	41 2c       	mov	r4, r1
    29b0:	56 01       	movw	r10, r12
    29b2:	84 e0       	ldi	r24, 0x04	; 4
    29b4:	a8 0e       	add	r10, r24
    29b6:	b1 1c       	adc	r11, r1
    29b8:	f6 01       	movw	r30, r12
    29ba:	60 81       	ld	r22, Z
    29bc:	71 81       	ldd	r23, Z+1	; 0x01
    29be:	82 81       	ldd	r24, Z+2	; 0x02
    29c0:	93 81       	ldd	r25, Z+3	; 0x03
    29c2:	04 2d       	mov	r16, r4
    29c4:	a3 01       	movw	r20, r6
    29c6:	da d2       	rcall	.+1460   	; 0x2f7c <__ftoa_engine>
    29c8:	6c 01       	movw	r12, r24
    29ca:	f9 81       	ldd	r31, Y+1	; 0x01
    29cc:	fc 87       	std	Y+12, r31	; 0x0c
    29ce:	f0 ff       	sbrs	r31, 0
    29d0:	02 c0       	rjmp	.+4      	; 0x29d6 <vfprintf+0x1b0>
    29d2:	f3 ff       	sbrs	r31, 3
    29d4:	06 c0       	rjmp	.+12     	; 0x29e2 <vfprintf+0x1bc>
    29d6:	91 fc       	sbrc	r9, 1
    29d8:	06 c0       	rjmp	.+12     	; 0x29e6 <vfprintf+0x1c0>
    29da:	92 fe       	sbrs	r9, 2
    29dc:	06 c0       	rjmp	.+12     	; 0x29ea <vfprintf+0x1c4>
    29de:	00 e2       	ldi	r16, 0x20	; 32
    29e0:	05 c0       	rjmp	.+10     	; 0x29ec <vfprintf+0x1c6>
    29e2:	0d e2       	ldi	r16, 0x2D	; 45
    29e4:	03 c0       	rjmp	.+6      	; 0x29ec <vfprintf+0x1c6>
    29e6:	0b e2       	ldi	r16, 0x2B	; 43
    29e8:	01 c0       	rjmp	.+2      	; 0x29ec <vfprintf+0x1c6>
    29ea:	00 e0       	ldi	r16, 0x00	; 0
    29ec:	8c 85       	ldd	r24, Y+12	; 0x0c
    29ee:	8c 70       	andi	r24, 0x0C	; 12
    29f0:	19 f0       	breq	.+6      	; 0x29f8 <vfprintf+0x1d2>
    29f2:	01 11       	cpse	r16, r1
    29f4:	43 c2       	rjmp	.+1158   	; 0x2e7c <vfprintf+0x656>
    29f6:	80 c2       	rjmp	.+1280   	; 0x2ef8 <vfprintf+0x6d2>
    29f8:	97 fe       	sbrs	r9, 7
    29fa:	10 c0       	rjmp	.+32     	; 0x2a1c <vfprintf+0x1f6>
    29fc:	4c 0c       	add	r4, r12
    29fe:	fc 85       	ldd	r31, Y+12	; 0x0c
    2a00:	f4 ff       	sbrs	r31, 4
    2a02:	04 c0       	rjmp	.+8      	; 0x2a0c <vfprintf+0x1e6>
    2a04:	8a 81       	ldd	r24, Y+2	; 0x02
    2a06:	81 33       	cpi	r24, 0x31	; 49
    2a08:	09 f4       	brne	.+2      	; 0x2a0c <vfprintf+0x1e6>
    2a0a:	4a 94       	dec	r4
    2a0c:	14 14       	cp	r1, r4
    2a0e:	74 f5       	brge	.+92     	; 0x2a6c <vfprintf+0x246>
    2a10:	28 e0       	ldi	r18, 0x08	; 8
    2a12:	24 15       	cp	r18, r4
    2a14:	78 f5       	brcc	.+94     	; 0x2a74 <vfprintf+0x24e>
    2a16:	88 e0       	ldi	r24, 0x08	; 8
    2a18:	48 2e       	mov	r4, r24
    2a1a:	2c c0       	rjmp	.+88     	; 0x2a74 <vfprintf+0x24e>
    2a1c:	96 fc       	sbrc	r9, 6
    2a1e:	2a c0       	rjmp	.+84     	; 0x2a74 <vfprintf+0x24e>
    2a20:	81 2f       	mov	r24, r17
    2a22:	90 e0       	ldi	r25, 0x00	; 0
    2a24:	8c 15       	cp	r24, r12
    2a26:	9d 05       	cpc	r25, r13
    2a28:	9c f0       	brlt	.+38     	; 0x2a50 <vfprintf+0x22a>
    2a2a:	3c ef       	ldi	r19, 0xFC	; 252
    2a2c:	c3 16       	cp	r12, r19
    2a2e:	3f ef       	ldi	r19, 0xFF	; 255
    2a30:	d3 06       	cpc	r13, r19
    2a32:	74 f0       	brlt	.+28     	; 0x2a50 <vfprintf+0x22a>
    2a34:	89 2d       	mov	r24, r9
    2a36:	80 68       	ori	r24, 0x80	; 128
    2a38:	98 2e       	mov	r9, r24
    2a3a:	0a c0       	rjmp	.+20     	; 0x2a50 <vfprintf+0x22a>
    2a3c:	e2 e0       	ldi	r30, 0x02	; 2
    2a3e:	f0 e0       	ldi	r31, 0x00	; 0
    2a40:	ec 0f       	add	r30, r28
    2a42:	fd 1f       	adc	r31, r29
    2a44:	e1 0f       	add	r30, r17
    2a46:	f1 1d       	adc	r31, r1
    2a48:	80 81       	ld	r24, Z
    2a4a:	80 33       	cpi	r24, 0x30	; 48
    2a4c:	19 f4       	brne	.+6      	; 0x2a54 <vfprintf+0x22e>
    2a4e:	11 50       	subi	r17, 0x01	; 1
    2a50:	11 11       	cpse	r17, r1
    2a52:	f4 cf       	rjmp	.-24     	; 0x2a3c <vfprintf+0x216>
    2a54:	97 fe       	sbrs	r9, 7
    2a56:	0e c0       	rjmp	.+28     	; 0x2a74 <vfprintf+0x24e>
    2a58:	44 24       	eor	r4, r4
    2a5a:	43 94       	inc	r4
    2a5c:	41 0e       	add	r4, r17
    2a5e:	81 2f       	mov	r24, r17
    2a60:	90 e0       	ldi	r25, 0x00	; 0
    2a62:	c8 16       	cp	r12, r24
    2a64:	d9 06       	cpc	r13, r25
    2a66:	2c f4       	brge	.+10     	; 0x2a72 <vfprintf+0x24c>
    2a68:	1c 19       	sub	r17, r12
    2a6a:	04 c0       	rjmp	.+8      	; 0x2a74 <vfprintf+0x24e>
    2a6c:	44 24       	eor	r4, r4
    2a6e:	43 94       	inc	r4
    2a70:	01 c0       	rjmp	.+2      	; 0x2a74 <vfprintf+0x24e>
    2a72:	10 e0       	ldi	r17, 0x00	; 0
    2a74:	97 fe       	sbrs	r9, 7
    2a76:	06 c0       	rjmp	.+12     	; 0x2a84 <vfprintf+0x25e>
    2a78:	1c 14       	cp	r1, r12
    2a7a:	1d 04       	cpc	r1, r13
    2a7c:	34 f4       	brge	.+12     	; 0x2a8a <vfprintf+0x264>
    2a7e:	c6 01       	movw	r24, r12
    2a80:	01 96       	adiw	r24, 0x01	; 1
    2a82:	05 c0       	rjmp	.+10     	; 0x2a8e <vfprintf+0x268>
    2a84:	85 e0       	ldi	r24, 0x05	; 5
    2a86:	90 e0       	ldi	r25, 0x00	; 0
    2a88:	02 c0       	rjmp	.+4      	; 0x2a8e <vfprintf+0x268>
    2a8a:	81 e0       	ldi	r24, 0x01	; 1
    2a8c:	90 e0       	ldi	r25, 0x00	; 0
    2a8e:	01 11       	cpse	r16, r1
    2a90:	01 96       	adiw	r24, 0x01	; 1
    2a92:	11 23       	and	r17, r17
    2a94:	31 f0       	breq	.+12     	; 0x2aa2 <vfprintf+0x27c>
    2a96:	21 2f       	mov	r18, r17
    2a98:	30 e0       	ldi	r19, 0x00	; 0
    2a9a:	2f 5f       	subi	r18, 0xFF	; 255
    2a9c:	3f 4f       	sbci	r19, 0xFF	; 255
    2a9e:	82 0f       	add	r24, r18
    2aa0:	93 1f       	adc	r25, r19
    2aa2:	25 2d       	mov	r18, r5
    2aa4:	30 e0       	ldi	r19, 0x00	; 0
    2aa6:	82 17       	cp	r24, r18
    2aa8:	93 07       	cpc	r25, r19
    2aaa:	14 f4       	brge	.+4      	; 0x2ab0 <vfprintf+0x28a>
    2aac:	58 1a       	sub	r5, r24
    2aae:	01 c0       	rjmp	.+2      	; 0x2ab2 <vfprintf+0x28c>
    2ab0:	51 2c       	mov	r5, r1
    2ab2:	89 2d       	mov	r24, r9
    2ab4:	89 70       	andi	r24, 0x09	; 9
    2ab6:	41 f4       	brne	.+16     	; 0x2ac8 <vfprintf+0x2a2>
    2ab8:	55 20       	and	r5, r5
    2aba:	31 f0       	breq	.+12     	; 0x2ac8 <vfprintf+0x2a2>
    2abc:	b7 01       	movw	r22, r14
    2abe:	80 e2       	ldi	r24, 0x20	; 32
    2ac0:	90 e0       	ldi	r25, 0x00	; 0
    2ac2:	4a d3       	rcall	.+1684   	; 0x3158 <fputc>
    2ac4:	5a 94       	dec	r5
    2ac6:	f8 cf       	rjmp	.-16     	; 0x2ab8 <vfprintf+0x292>
    2ac8:	00 23       	and	r16, r16
    2aca:	21 f0       	breq	.+8      	; 0x2ad4 <vfprintf+0x2ae>
    2acc:	b7 01       	movw	r22, r14
    2ace:	80 2f       	mov	r24, r16
    2ad0:	90 e0       	ldi	r25, 0x00	; 0
    2ad2:	42 d3       	rcall	.+1668   	; 0x3158 <fputc>
    2ad4:	93 fc       	sbrc	r9, 3
    2ad6:	08 c0       	rjmp	.+16     	; 0x2ae8 <vfprintf+0x2c2>
    2ad8:	55 20       	and	r5, r5
    2ada:	31 f0       	breq	.+12     	; 0x2ae8 <vfprintf+0x2c2>
    2adc:	b7 01       	movw	r22, r14
    2ade:	80 e3       	ldi	r24, 0x30	; 48
    2ae0:	90 e0       	ldi	r25, 0x00	; 0
    2ae2:	3a d3       	rcall	.+1652   	; 0x3158 <fputc>
    2ae4:	5a 94       	dec	r5
    2ae6:	f8 cf       	rjmp	.-16     	; 0x2ad8 <vfprintf+0x2b2>
    2ae8:	97 fe       	sbrs	r9, 7
    2aea:	4a c0       	rjmp	.+148    	; 0x2b80 <vfprintf+0x35a>
    2aec:	46 01       	movw	r8, r12
    2aee:	d7 fe       	sbrs	r13, 7
    2af0:	02 c0       	rjmp	.+4      	; 0x2af6 <vfprintf+0x2d0>
    2af2:	81 2c       	mov	r8, r1
    2af4:	91 2c       	mov	r9, r1
    2af6:	c6 01       	movw	r24, r12
    2af8:	88 19       	sub	r24, r8
    2afa:	99 09       	sbc	r25, r9
    2afc:	f3 01       	movw	r30, r6
    2afe:	e8 0f       	add	r30, r24
    2b00:	f9 1f       	adc	r31, r25
    2b02:	fe 87       	std	Y+14, r31	; 0x0e
    2b04:	ed 87       	std	Y+13, r30	; 0x0d
    2b06:	96 01       	movw	r18, r12
    2b08:	24 19       	sub	r18, r4
    2b0a:	31 09       	sbc	r19, r1
    2b0c:	38 8b       	std	Y+16, r19	; 0x10
    2b0e:	2f 87       	std	Y+15, r18	; 0x0f
    2b10:	01 2f       	mov	r16, r17
    2b12:	10 e0       	ldi	r17, 0x00	; 0
    2b14:	11 95       	neg	r17
    2b16:	01 95       	neg	r16
    2b18:	11 09       	sbc	r17, r1
    2b1a:	3f ef       	ldi	r19, 0xFF	; 255
    2b1c:	83 16       	cp	r8, r19
    2b1e:	93 06       	cpc	r9, r19
    2b20:	21 f4       	brne	.+8      	; 0x2b2a <vfprintf+0x304>
    2b22:	b7 01       	movw	r22, r14
    2b24:	8e e2       	ldi	r24, 0x2E	; 46
    2b26:	90 e0       	ldi	r25, 0x00	; 0
    2b28:	17 d3       	rcall	.+1582   	; 0x3158 <fputc>
    2b2a:	c8 14       	cp	r12, r8
    2b2c:	d9 04       	cpc	r13, r9
    2b2e:	4c f0       	brlt	.+18     	; 0x2b42 <vfprintf+0x31c>
    2b30:	8f 85       	ldd	r24, Y+15	; 0x0f
    2b32:	98 89       	ldd	r25, Y+16	; 0x10
    2b34:	88 15       	cp	r24, r8
    2b36:	99 05       	cpc	r25, r9
    2b38:	24 f4       	brge	.+8      	; 0x2b42 <vfprintf+0x31c>
    2b3a:	ed 85       	ldd	r30, Y+13	; 0x0d
    2b3c:	fe 85       	ldd	r31, Y+14	; 0x0e
    2b3e:	81 81       	ldd	r24, Z+1	; 0x01
    2b40:	01 c0       	rjmp	.+2      	; 0x2b44 <vfprintf+0x31e>
    2b42:	80 e3       	ldi	r24, 0x30	; 48
    2b44:	f1 e0       	ldi	r31, 0x01	; 1
    2b46:	8f 1a       	sub	r8, r31
    2b48:	91 08       	sbc	r9, r1
    2b4a:	2d 85       	ldd	r18, Y+13	; 0x0d
    2b4c:	3e 85       	ldd	r19, Y+14	; 0x0e
    2b4e:	2f 5f       	subi	r18, 0xFF	; 255
    2b50:	3f 4f       	sbci	r19, 0xFF	; 255
    2b52:	3e 87       	std	Y+14, r19	; 0x0e
    2b54:	2d 87       	std	Y+13, r18	; 0x0d
    2b56:	80 16       	cp	r8, r16
    2b58:	91 06       	cpc	r9, r17
    2b5a:	24 f0       	brlt	.+8      	; 0x2b64 <vfprintf+0x33e>
    2b5c:	b7 01       	movw	r22, r14
    2b5e:	90 e0       	ldi	r25, 0x00	; 0
    2b60:	fb d2       	rcall	.+1526   	; 0x3158 <fputc>
    2b62:	db cf       	rjmp	.-74     	; 0x2b1a <vfprintf+0x2f4>
    2b64:	c8 14       	cp	r12, r8
    2b66:	d9 04       	cpc	r13, r9
    2b68:	41 f4       	brne	.+16     	; 0x2b7a <vfprintf+0x354>
    2b6a:	9a 81       	ldd	r25, Y+2	; 0x02
    2b6c:	96 33       	cpi	r25, 0x36	; 54
    2b6e:	20 f4       	brcc	.+8      	; 0x2b78 <vfprintf+0x352>
    2b70:	95 33       	cpi	r25, 0x35	; 53
    2b72:	19 f4       	brne	.+6      	; 0x2b7a <vfprintf+0x354>
    2b74:	3c 85       	ldd	r19, Y+12	; 0x0c
    2b76:	34 ff       	sbrs	r19, 4
    2b78:	81 e3       	ldi	r24, 0x31	; 49
    2b7a:	b7 01       	movw	r22, r14
    2b7c:	90 e0       	ldi	r25, 0x00	; 0
    2b7e:	48 c0       	rjmp	.+144    	; 0x2c10 <vfprintf+0x3ea>
    2b80:	8a 81       	ldd	r24, Y+2	; 0x02
    2b82:	81 33       	cpi	r24, 0x31	; 49
    2b84:	19 f0       	breq	.+6      	; 0x2b8c <vfprintf+0x366>
    2b86:	9c 85       	ldd	r25, Y+12	; 0x0c
    2b88:	9f 7e       	andi	r25, 0xEF	; 239
    2b8a:	9c 87       	std	Y+12, r25	; 0x0c
    2b8c:	b7 01       	movw	r22, r14
    2b8e:	90 e0       	ldi	r25, 0x00	; 0
    2b90:	e3 d2       	rcall	.+1478   	; 0x3158 <fputc>
    2b92:	11 11       	cpse	r17, r1
    2b94:	05 c0       	rjmp	.+10     	; 0x2ba0 <vfprintf+0x37a>
    2b96:	94 fc       	sbrc	r9, 4
    2b98:	16 c0       	rjmp	.+44     	; 0x2bc6 <vfprintf+0x3a0>
    2b9a:	85 e6       	ldi	r24, 0x65	; 101
    2b9c:	90 e0       	ldi	r25, 0x00	; 0
    2b9e:	15 c0       	rjmp	.+42     	; 0x2bca <vfprintf+0x3a4>
    2ba0:	b7 01       	movw	r22, r14
    2ba2:	8e e2       	ldi	r24, 0x2E	; 46
    2ba4:	90 e0       	ldi	r25, 0x00	; 0
    2ba6:	d8 d2       	rcall	.+1456   	; 0x3158 <fputc>
    2ba8:	1e 5f       	subi	r17, 0xFE	; 254
    2baa:	82 e0       	ldi	r24, 0x02	; 2
    2bac:	01 e0       	ldi	r16, 0x01	; 1
    2bae:	08 0f       	add	r16, r24
    2bb0:	f3 01       	movw	r30, r6
    2bb2:	e8 0f       	add	r30, r24
    2bb4:	f1 1d       	adc	r31, r1
    2bb6:	80 81       	ld	r24, Z
    2bb8:	b7 01       	movw	r22, r14
    2bba:	90 e0       	ldi	r25, 0x00	; 0
    2bbc:	cd d2       	rcall	.+1434   	; 0x3158 <fputc>
    2bbe:	80 2f       	mov	r24, r16
    2bc0:	01 13       	cpse	r16, r17
    2bc2:	f4 cf       	rjmp	.-24     	; 0x2bac <vfprintf+0x386>
    2bc4:	e8 cf       	rjmp	.-48     	; 0x2b96 <vfprintf+0x370>
    2bc6:	85 e4       	ldi	r24, 0x45	; 69
    2bc8:	90 e0       	ldi	r25, 0x00	; 0
    2bca:	b7 01       	movw	r22, r14
    2bcc:	c5 d2       	rcall	.+1418   	; 0x3158 <fputc>
    2bce:	d7 fc       	sbrc	r13, 7
    2bd0:	06 c0       	rjmp	.+12     	; 0x2bde <vfprintf+0x3b8>
    2bd2:	c1 14       	cp	r12, r1
    2bd4:	d1 04       	cpc	r13, r1
    2bd6:	41 f4       	brne	.+16     	; 0x2be8 <vfprintf+0x3c2>
    2bd8:	ec 85       	ldd	r30, Y+12	; 0x0c
    2bda:	e4 ff       	sbrs	r30, 4
    2bdc:	05 c0       	rjmp	.+10     	; 0x2be8 <vfprintf+0x3c2>
    2bde:	d1 94       	neg	r13
    2be0:	c1 94       	neg	r12
    2be2:	d1 08       	sbc	r13, r1
    2be4:	8d e2       	ldi	r24, 0x2D	; 45
    2be6:	01 c0       	rjmp	.+2      	; 0x2bea <vfprintf+0x3c4>
    2be8:	8b e2       	ldi	r24, 0x2B	; 43
    2bea:	b7 01       	movw	r22, r14
    2bec:	90 e0       	ldi	r25, 0x00	; 0
    2bee:	b4 d2       	rcall	.+1384   	; 0x3158 <fputc>
    2bf0:	80 e3       	ldi	r24, 0x30	; 48
    2bf2:	2a e0       	ldi	r18, 0x0A	; 10
    2bf4:	c2 16       	cp	r12, r18
    2bf6:	d1 04       	cpc	r13, r1
    2bf8:	2c f0       	brlt	.+10     	; 0x2c04 <vfprintf+0x3de>
    2bfa:	8f 5f       	subi	r24, 0xFF	; 255
    2bfc:	fa e0       	ldi	r31, 0x0A	; 10
    2bfe:	cf 1a       	sub	r12, r31
    2c00:	d1 08       	sbc	r13, r1
    2c02:	f7 cf       	rjmp	.-18     	; 0x2bf2 <vfprintf+0x3cc>
    2c04:	b7 01       	movw	r22, r14
    2c06:	90 e0       	ldi	r25, 0x00	; 0
    2c08:	a7 d2       	rcall	.+1358   	; 0x3158 <fputc>
    2c0a:	b7 01       	movw	r22, r14
    2c0c:	c6 01       	movw	r24, r12
    2c0e:	c0 96       	adiw	r24, 0x30	; 48
    2c10:	a3 d2       	rcall	.+1350   	; 0x3158 <fputc>
    2c12:	49 c1       	rjmp	.+658    	; 0x2ea6 <vfprintf+0x680>
    2c14:	83 36       	cpi	r24, 0x63	; 99
    2c16:	31 f0       	breq	.+12     	; 0x2c24 <vfprintf+0x3fe>
    2c18:	83 37       	cpi	r24, 0x73	; 115
    2c1a:	79 f0       	breq	.+30     	; 0x2c3a <vfprintf+0x414>
    2c1c:	83 35       	cpi	r24, 0x53	; 83
    2c1e:	09 f0       	breq	.+2      	; 0x2c22 <vfprintf+0x3fc>
    2c20:	52 c0       	rjmp	.+164    	; 0x2cc6 <vfprintf+0x4a0>
    2c22:	1f c0       	rjmp	.+62     	; 0x2c62 <vfprintf+0x43c>
    2c24:	56 01       	movw	r10, r12
    2c26:	32 e0       	ldi	r19, 0x02	; 2
    2c28:	a3 0e       	add	r10, r19
    2c2a:	b1 1c       	adc	r11, r1
    2c2c:	f6 01       	movw	r30, r12
    2c2e:	80 81       	ld	r24, Z
    2c30:	89 83       	std	Y+1, r24	; 0x01
    2c32:	01 e0       	ldi	r16, 0x01	; 1
    2c34:	10 e0       	ldi	r17, 0x00	; 0
    2c36:	63 01       	movw	r12, r6
    2c38:	11 c0       	rjmp	.+34     	; 0x2c5c <vfprintf+0x436>
    2c3a:	56 01       	movw	r10, r12
    2c3c:	f2 e0       	ldi	r31, 0x02	; 2
    2c3e:	af 0e       	add	r10, r31
    2c40:	b1 1c       	adc	r11, r1
    2c42:	f6 01       	movw	r30, r12
    2c44:	c0 80       	ld	r12, Z
    2c46:	d1 80       	ldd	r13, Z+1	; 0x01
    2c48:	96 fe       	sbrs	r9, 6
    2c4a:	03 c0       	rjmp	.+6      	; 0x2c52 <vfprintf+0x42c>
    2c4c:	61 2f       	mov	r22, r17
    2c4e:	70 e0       	ldi	r23, 0x00	; 0
    2c50:	02 c0       	rjmp	.+4      	; 0x2c56 <vfprintf+0x430>
    2c52:	6f ef       	ldi	r22, 0xFF	; 255
    2c54:	7f ef       	ldi	r23, 0xFF	; 255
    2c56:	c6 01       	movw	r24, r12
    2c58:	74 d2       	rcall	.+1256   	; 0x3142 <strnlen>
    2c5a:	8c 01       	movw	r16, r24
    2c5c:	f9 2d       	mov	r31, r9
    2c5e:	ff 77       	andi	r31, 0x7F	; 127
    2c60:	13 c0       	rjmp	.+38     	; 0x2c88 <vfprintf+0x462>
    2c62:	56 01       	movw	r10, r12
    2c64:	22 e0       	ldi	r18, 0x02	; 2
    2c66:	a2 0e       	add	r10, r18
    2c68:	b1 1c       	adc	r11, r1
    2c6a:	f6 01       	movw	r30, r12
    2c6c:	c0 80       	ld	r12, Z
    2c6e:	d1 80       	ldd	r13, Z+1	; 0x01
    2c70:	96 fe       	sbrs	r9, 6
    2c72:	03 c0       	rjmp	.+6      	; 0x2c7a <vfprintf+0x454>
    2c74:	61 2f       	mov	r22, r17
    2c76:	70 e0       	ldi	r23, 0x00	; 0
    2c78:	02 c0       	rjmp	.+4      	; 0x2c7e <vfprintf+0x458>
    2c7a:	6f ef       	ldi	r22, 0xFF	; 255
    2c7c:	7f ef       	ldi	r23, 0xFF	; 255
    2c7e:	c6 01       	movw	r24, r12
    2c80:	55 d2       	rcall	.+1194   	; 0x312c <strnlen_P>
    2c82:	8c 01       	movw	r16, r24
    2c84:	f9 2d       	mov	r31, r9
    2c86:	f0 68       	ori	r31, 0x80	; 128
    2c88:	9f 2e       	mov	r9, r31
    2c8a:	f3 fd       	sbrc	r31, 3
    2c8c:	18 c0       	rjmp	.+48     	; 0x2cbe <vfprintf+0x498>
    2c8e:	85 2d       	mov	r24, r5
    2c90:	90 e0       	ldi	r25, 0x00	; 0
    2c92:	08 17       	cp	r16, r24
    2c94:	19 07       	cpc	r17, r25
    2c96:	98 f4       	brcc	.+38     	; 0x2cbe <vfprintf+0x498>
    2c98:	b7 01       	movw	r22, r14
    2c9a:	80 e2       	ldi	r24, 0x20	; 32
    2c9c:	90 e0       	ldi	r25, 0x00	; 0
    2c9e:	5c d2       	rcall	.+1208   	; 0x3158 <fputc>
    2ca0:	5a 94       	dec	r5
    2ca2:	f5 cf       	rjmp	.-22     	; 0x2c8e <vfprintf+0x468>
    2ca4:	f6 01       	movw	r30, r12
    2ca6:	97 fc       	sbrc	r9, 7
    2ca8:	85 91       	lpm	r24, Z+
    2caa:	97 fe       	sbrs	r9, 7
    2cac:	81 91       	ld	r24, Z+
    2cae:	6f 01       	movw	r12, r30
    2cb0:	b7 01       	movw	r22, r14
    2cb2:	90 e0       	ldi	r25, 0x00	; 0
    2cb4:	51 d2       	rcall	.+1186   	; 0x3158 <fputc>
    2cb6:	51 10       	cpse	r5, r1
    2cb8:	5a 94       	dec	r5
    2cba:	01 50       	subi	r16, 0x01	; 1
    2cbc:	11 09       	sbc	r17, r1
    2cbe:	01 15       	cp	r16, r1
    2cc0:	11 05       	cpc	r17, r1
    2cc2:	81 f7       	brne	.-32     	; 0x2ca4 <vfprintf+0x47e>
    2cc4:	f0 c0       	rjmp	.+480    	; 0x2ea6 <vfprintf+0x680>
    2cc6:	84 36       	cpi	r24, 0x64	; 100
    2cc8:	11 f0       	breq	.+4      	; 0x2cce <vfprintf+0x4a8>
    2cca:	89 36       	cpi	r24, 0x69	; 105
    2ccc:	59 f5       	brne	.+86     	; 0x2d24 <vfprintf+0x4fe>
    2cce:	56 01       	movw	r10, r12
    2cd0:	97 fe       	sbrs	r9, 7
    2cd2:	09 c0       	rjmp	.+18     	; 0x2ce6 <vfprintf+0x4c0>
    2cd4:	24 e0       	ldi	r18, 0x04	; 4
    2cd6:	a2 0e       	add	r10, r18
    2cd8:	b1 1c       	adc	r11, r1
    2cda:	f6 01       	movw	r30, r12
    2cdc:	60 81       	ld	r22, Z
    2cde:	71 81       	ldd	r23, Z+1	; 0x01
    2ce0:	82 81       	ldd	r24, Z+2	; 0x02
    2ce2:	93 81       	ldd	r25, Z+3	; 0x03
    2ce4:	0a c0       	rjmp	.+20     	; 0x2cfa <vfprintf+0x4d4>
    2ce6:	f2 e0       	ldi	r31, 0x02	; 2
    2ce8:	af 0e       	add	r10, r31
    2cea:	b1 1c       	adc	r11, r1
    2cec:	f6 01       	movw	r30, r12
    2cee:	60 81       	ld	r22, Z
    2cf0:	71 81       	ldd	r23, Z+1	; 0x01
    2cf2:	07 2e       	mov	r0, r23
    2cf4:	00 0c       	add	r0, r0
    2cf6:	88 0b       	sbc	r24, r24
    2cf8:	99 0b       	sbc	r25, r25
    2cfa:	f9 2d       	mov	r31, r9
    2cfc:	ff 76       	andi	r31, 0x6F	; 111
    2cfe:	9f 2e       	mov	r9, r31
    2d00:	97 ff       	sbrs	r25, 7
    2d02:	09 c0       	rjmp	.+18     	; 0x2d16 <vfprintf+0x4f0>
    2d04:	90 95       	com	r25
    2d06:	80 95       	com	r24
    2d08:	70 95       	com	r23
    2d0a:	61 95       	neg	r22
    2d0c:	7f 4f       	sbci	r23, 0xFF	; 255
    2d0e:	8f 4f       	sbci	r24, 0xFF	; 255
    2d10:	9f 4f       	sbci	r25, 0xFF	; 255
    2d12:	f0 68       	ori	r31, 0x80	; 128
    2d14:	9f 2e       	mov	r9, r31
    2d16:	2a e0       	ldi	r18, 0x0A	; 10
    2d18:	30 e0       	ldi	r19, 0x00	; 0
    2d1a:	a3 01       	movw	r20, r6
    2d1c:	87 d2       	rcall	.+1294   	; 0x322c <__ultoa_invert>
    2d1e:	c8 2e       	mov	r12, r24
    2d20:	c6 18       	sub	r12, r6
    2d22:	3e c0       	rjmp	.+124    	; 0x2da0 <vfprintf+0x57a>
    2d24:	09 2d       	mov	r16, r9
    2d26:	85 37       	cpi	r24, 0x75	; 117
    2d28:	21 f4       	brne	.+8      	; 0x2d32 <vfprintf+0x50c>
    2d2a:	0f 7e       	andi	r16, 0xEF	; 239
    2d2c:	2a e0       	ldi	r18, 0x0A	; 10
    2d2e:	30 e0       	ldi	r19, 0x00	; 0
    2d30:	1d c0       	rjmp	.+58     	; 0x2d6c <vfprintf+0x546>
    2d32:	09 7f       	andi	r16, 0xF9	; 249
    2d34:	8f 36       	cpi	r24, 0x6F	; 111
    2d36:	91 f0       	breq	.+36     	; 0x2d5c <vfprintf+0x536>
    2d38:	18 f4       	brcc	.+6      	; 0x2d40 <vfprintf+0x51a>
    2d3a:	88 35       	cpi	r24, 0x58	; 88
    2d3c:	59 f0       	breq	.+22     	; 0x2d54 <vfprintf+0x52e>
    2d3e:	bc c0       	rjmp	.+376    	; 0x2eb8 <vfprintf+0x692>
    2d40:	80 37       	cpi	r24, 0x70	; 112
    2d42:	19 f0       	breq	.+6      	; 0x2d4a <vfprintf+0x524>
    2d44:	88 37       	cpi	r24, 0x78	; 120
    2d46:	11 f0       	breq	.+4      	; 0x2d4c <vfprintf+0x526>
    2d48:	b7 c0       	rjmp	.+366    	; 0x2eb8 <vfprintf+0x692>
    2d4a:	00 61       	ori	r16, 0x10	; 16
    2d4c:	04 ff       	sbrs	r16, 4
    2d4e:	09 c0       	rjmp	.+18     	; 0x2d62 <vfprintf+0x53c>
    2d50:	04 60       	ori	r16, 0x04	; 4
    2d52:	07 c0       	rjmp	.+14     	; 0x2d62 <vfprintf+0x53c>
    2d54:	94 fe       	sbrs	r9, 4
    2d56:	08 c0       	rjmp	.+16     	; 0x2d68 <vfprintf+0x542>
    2d58:	06 60       	ori	r16, 0x06	; 6
    2d5a:	06 c0       	rjmp	.+12     	; 0x2d68 <vfprintf+0x542>
    2d5c:	28 e0       	ldi	r18, 0x08	; 8
    2d5e:	30 e0       	ldi	r19, 0x00	; 0
    2d60:	05 c0       	rjmp	.+10     	; 0x2d6c <vfprintf+0x546>
    2d62:	20 e1       	ldi	r18, 0x10	; 16
    2d64:	30 e0       	ldi	r19, 0x00	; 0
    2d66:	02 c0       	rjmp	.+4      	; 0x2d6c <vfprintf+0x546>
    2d68:	20 e1       	ldi	r18, 0x10	; 16
    2d6a:	32 e0       	ldi	r19, 0x02	; 2
    2d6c:	56 01       	movw	r10, r12
    2d6e:	07 ff       	sbrs	r16, 7
    2d70:	09 c0       	rjmp	.+18     	; 0x2d84 <vfprintf+0x55e>
    2d72:	84 e0       	ldi	r24, 0x04	; 4
    2d74:	a8 0e       	add	r10, r24
    2d76:	b1 1c       	adc	r11, r1
    2d78:	f6 01       	movw	r30, r12
    2d7a:	60 81       	ld	r22, Z
    2d7c:	71 81       	ldd	r23, Z+1	; 0x01
    2d7e:	82 81       	ldd	r24, Z+2	; 0x02
    2d80:	93 81       	ldd	r25, Z+3	; 0x03
    2d82:	08 c0       	rjmp	.+16     	; 0x2d94 <vfprintf+0x56e>
    2d84:	f2 e0       	ldi	r31, 0x02	; 2
    2d86:	af 0e       	add	r10, r31
    2d88:	b1 1c       	adc	r11, r1
    2d8a:	f6 01       	movw	r30, r12
    2d8c:	60 81       	ld	r22, Z
    2d8e:	71 81       	ldd	r23, Z+1	; 0x01
    2d90:	80 e0       	ldi	r24, 0x00	; 0
    2d92:	90 e0       	ldi	r25, 0x00	; 0
    2d94:	a3 01       	movw	r20, r6
    2d96:	4a d2       	rcall	.+1172   	; 0x322c <__ultoa_invert>
    2d98:	c8 2e       	mov	r12, r24
    2d9a:	c6 18       	sub	r12, r6
    2d9c:	0f 77       	andi	r16, 0x7F	; 127
    2d9e:	90 2e       	mov	r9, r16
    2da0:	96 fe       	sbrs	r9, 6
    2da2:	0b c0       	rjmp	.+22     	; 0x2dba <vfprintf+0x594>
    2da4:	09 2d       	mov	r16, r9
    2da6:	0e 7f       	andi	r16, 0xFE	; 254
    2da8:	c1 16       	cp	r12, r17
    2daa:	50 f4       	brcc	.+20     	; 0x2dc0 <vfprintf+0x59a>
    2dac:	94 fe       	sbrs	r9, 4
    2dae:	0a c0       	rjmp	.+20     	; 0x2dc4 <vfprintf+0x59e>
    2db0:	92 fc       	sbrc	r9, 2
    2db2:	08 c0       	rjmp	.+16     	; 0x2dc4 <vfprintf+0x59e>
    2db4:	09 2d       	mov	r16, r9
    2db6:	0e 7e       	andi	r16, 0xEE	; 238
    2db8:	05 c0       	rjmp	.+10     	; 0x2dc4 <vfprintf+0x59e>
    2dba:	dc 2c       	mov	r13, r12
    2dbc:	09 2d       	mov	r16, r9
    2dbe:	03 c0       	rjmp	.+6      	; 0x2dc6 <vfprintf+0x5a0>
    2dc0:	dc 2c       	mov	r13, r12
    2dc2:	01 c0       	rjmp	.+2      	; 0x2dc6 <vfprintf+0x5a0>
    2dc4:	d1 2e       	mov	r13, r17
    2dc6:	04 ff       	sbrs	r16, 4
    2dc8:	0d c0       	rjmp	.+26     	; 0x2de4 <vfprintf+0x5be>
    2dca:	fe 01       	movw	r30, r28
    2dcc:	ec 0d       	add	r30, r12
    2dce:	f1 1d       	adc	r31, r1
    2dd0:	80 81       	ld	r24, Z
    2dd2:	80 33       	cpi	r24, 0x30	; 48
    2dd4:	11 f4       	brne	.+4      	; 0x2dda <vfprintf+0x5b4>
    2dd6:	09 7e       	andi	r16, 0xE9	; 233
    2dd8:	09 c0       	rjmp	.+18     	; 0x2dec <vfprintf+0x5c6>
    2dda:	02 ff       	sbrs	r16, 2
    2ddc:	06 c0       	rjmp	.+12     	; 0x2dea <vfprintf+0x5c4>
    2dde:	d3 94       	inc	r13
    2de0:	d3 94       	inc	r13
    2de2:	04 c0       	rjmp	.+8      	; 0x2dec <vfprintf+0x5c6>
    2de4:	80 2f       	mov	r24, r16
    2de6:	86 78       	andi	r24, 0x86	; 134
    2de8:	09 f0       	breq	.+2      	; 0x2dec <vfprintf+0x5c6>
    2dea:	d3 94       	inc	r13
    2dec:	03 fd       	sbrc	r16, 3
    2dee:	10 c0       	rjmp	.+32     	; 0x2e10 <vfprintf+0x5ea>
    2df0:	00 ff       	sbrs	r16, 0
    2df2:	06 c0       	rjmp	.+12     	; 0x2e00 <vfprintf+0x5da>
    2df4:	1c 2d       	mov	r17, r12
    2df6:	d5 14       	cp	r13, r5
    2df8:	78 f4       	brcc	.+30     	; 0x2e18 <vfprintf+0x5f2>
    2dfa:	15 0d       	add	r17, r5
    2dfc:	1d 19       	sub	r17, r13
    2dfe:	0c c0       	rjmp	.+24     	; 0x2e18 <vfprintf+0x5f2>
    2e00:	d5 14       	cp	r13, r5
    2e02:	50 f4       	brcc	.+20     	; 0x2e18 <vfprintf+0x5f2>
    2e04:	b7 01       	movw	r22, r14
    2e06:	80 e2       	ldi	r24, 0x20	; 32
    2e08:	90 e0       	ldi	r25, 0x00	; 0
    2e0a:	a6 d1       	rcall	.+844    	; 0x3158 <fputc>
    2e0c:	d3 94       	inc	r13
    2e0e:	f8 cf       	rjmp	.-16     	; 0x2e00 <vfprintf+0x5da>
    2e10:	d5 14       	cp	r13, r5
    2e12:	10 f4       	brcc	.+4      	; 0x2e18 <vfprintf+0x5f2>
    2e14:	5d 18       	sub	r5, r13
    2e16:	01 c0       	rjmp	.+2      	; 0x2e1a <vfprintf+0x5f4>
    2e18:	51 2c       	mov	r5, r1
    2e1a:	04 ff       	sbrs	r16, 4
    2e1c:	0f c0       	rjmp	.+30     	; 0x2e3c <vfprintf+0x616>
    2e1e:	b7 01       	movw	r22, r14
    2e20:	80 e3       	ldi	r24, 0x30	; 48
    2e22:	90 e0       	ldi	r25, 0x00	; 0
    2e24:	99 d1       	rcall	.+818    	; 0x3158 <fputc>
    2e26:	02 ff       	sbrs	r16, 2
    2e28:	16 c0       	rjmp	.+44     	; 0x2e56 <vfprintf+0x630>
    2e2a:	01 fd       	sbrc	r16, 1
    2e2c:	03 c0       	rjmp	.+6      	; 0x2e34 <vfprintf+0x60e>
    2e2e:	88 e7       	ldi	r24, 0x78	; 120
    2e30:	90 e0       	ldi	r25, 0x00	; 0
    2e32:	02 c0       	rjmp	.+4      	; 0x2e38 <vfprintf+0x612>
    2e34:	88 e5       	ldi	r24, 0x58	; 88
    2e36:	90 e0       	ldi	r25, 0x00	; 0
    2e38:	b7 01       	movw	r22, r14
    2e3a:	0c c0       	rjmp	.+24     	; 0x2e54 <vfprintf+0x62e>
    2e3c:	80 2f       	mov	r24, r16
    2e3e:	86 78       	andi	r24, 0x86	; 134
    2e40:	51 f0       	breq	.+20     	; 0x2e56 <vfprintf+0x630>
    2e42:	01 ff       	sbrs	r16, 1
    2e44:	02 c0       	rjmp	.+4      	; 0x2e4a <vfprintf+0x624>
    2e46:	8b e2       	ldi	r24, 0x2B	; 43
    2e48:	01 c0       	rjmp	.+2      	; 0x2e4c <vfprintf+0x626>
    2e4a:	80 e2       	ldi	r24, 0x20	; 32
    2e4c:	07 fd       	sbrc	r16, 7
    2e4e:	8d e2       	ldi	r24, 0x2D	; 45
    2e50:	b7 01       	movw	r22, r14
    2e52:	90 e0       	ldi	r25, 0x00	; 0
    2e54:	81 d1       	rcall	.+770    	; 0x3158 <fputc>
    2e56:	c1 16       	cp	r12, r17
    2e58:	30 f4       	brcc	.+12     	; 0x2e66 <vfprintf+0x640>
    2e5a:	b7 01       	movw	r22, r14
    2e5c:	80 e3       	ldi	r24, 0x30	; 48
    2e5e:	90 e0       	ldi	r25, 0x00	; 0
    2e60:	7b d1       	rcall	.+758    	; 0x3158 <fputc>
    2e62:	11 50       	subi	r17, 0x01	; 1
    2e64:	f8 cf       	rjmp	.-16     	; 0x2e56 <vfprintf+0x630>
    2e66:	ca 94       	dec	r12
    2e68:	f3 01       	movw	r30, r6
    2e6a:	ec 0d       	add	r30, r12
    2e6c:	f1 1d       	adc	r31, r1
    2e6e:	80 81       	ld	r24, Z
    2e70:	b7 01       	movw	r22, r14
    2e72:	90 e0       	ldi	r25, 0x00	; 0
    2e74:	71 d1       	rcall	.+738    	; 0x3158 <fputc>
    2e76:	c1 10       	cpse	r12, r1
    2e78:	f6 cf       	rjmp	.-20     	; 0x2e66 <vfprintf+0x640>
    2e7a:	15 c0       	rjmp	.+42     	; 0x2ea6 <vfprintf+0x680>
    2e7c:	f4 e0       	ldi	r31, 0x04	; 4
    2e7e:	f5 15       	cp	r31, r5
    2e80:	50 f5       	brcc	.+84     	; 0x2ed6 <vfprintf+0x6b0>
    2e82:	84 e0       	ldi	r24, 0x04	; 4
    2e84:	58 1a       	sub	r5, r24
    2e86:	93 fe       	sbrs	r9, 3
    2e88:	1e c0       	rjmp	.+60     	; 0x2ec6 <vfprintf+0x6a0>
    2e8a:	01 11       	cpse	r16, r1
    2e8c:	25 c0       	rjmp	.+74     	; 0x2ed8 <vfprintf+0x6b2>
    2e8e:	2c 85       	ldd	r18, Y+12	; 0x0c
    2e90:	23 ff       	sbrs	r18, 3
    2e92:	27 c0       	rjmp	.+78     	; 0x2ee2 <vfprintf+0x6bc>
    2e94:	04 ee       	ldi	r16, 0xE4	; 228
    2e96:	10 e0       	ldi	r17, 0x00	; 0
    2e98:	39 2d       	mov	r19, r9
    2e9a:	30 71       	andi	r19, 0x10	; 16
    2e9c:	93 2e       	mov	r9, r19
    2e9e:	f8 01       	movw	r30, r16
    2ea0:	84 91       	lpm	r24, Z
    2ea2:	81 11       	cpse	r24, r1
    2ea4:	21 c0       	rjmp	.+66     	; 0x2ee8 <vfprintf+0x6c2>
    2ea6:	55 20       	and	r5, r5
    2ea8:	09 f4       	brne	.+2      	; 0x2eac <vfprintf+0x686>
    2eaa:	fc cc       	rjmp	.-1544   	; 0x28a4 <vfprintf+0x7e>
    2eac:	b7 01       	movw	r22, r14
    2eae:	80 e2       	ldi	r24, 0x20	; 32
    2eb0:	90 e0       	ldi	r25, 0x00	; 0
    2eb2:	52 d1       	rcall	.+676    	; 0x3158 <fputc>
    2eb4:	5a 94       	dec	r5
    2eb6:	f7 cf       	rjmp	.-18     	; 0x2ea6 <vfprintf+0x680>
    2eb8:	f7 01       	movw	r30, r14
    2eba:	86 81       	ldd	r24, Z+6	; 0x06
    2ebc:	97 81       	ldd	r25, Z+7	; 0x07
    2ebe:	23 c0       	rjmp	.+70     	; 0x2f06 <vfprintf+0x6e0>
    2ec0:	8f ef       	ldi	r24, 0xFF	; 255
    2ec2:	9f ef       	ldi	r25, 0xFF	; 255
    2ec4:	20 c0       	rjmp	.+64     	; 0x2f06 <vfprintf+0x6e0>
    2ec6:	b7 01       	movw	r22, r14
    2ec8:	80 e2       	ldi	r24, 0x20	; 32
    2eca:	90 e0       	ldi	r25, 0x00	; 0
    2ecc:	45 d1       	rcall	.+650    	; 0x3158 <fputc>
    2ece:	5a 94       	dec	r5
    2ed0:	51 10       	cpse	r5, r1
    2ed2:	f9 cf       	rjmp	.-14     	; 0x2ec6 <vfprintf+0x6a0>
    2ed4:	da cf       	rjmp	.-76     	; 0x2e8a <vfprintf+0x664>
    2ed6:	51 2c       	mov	r5, r1
    2ed8:	b7 01       	movw	r22, r14
    2eda:	80 2f       	mov	r24, r16
    2edc:	90 e0       	ldi	r25, 0x00	; 0
    2ede:	3c d1       	rcall	.+632    	; 0x3158 <fputc>
    2ee0:	d6 cf       	rjmp	.-84     	; 0x2e8e <vfprintf+0x668>
    2ee2:	08 ee       	ldi	r16, 0xE8	; 232
    2ee4:	10 e0       	ldi	r17, 0x00	; 0
    2ee6:	d8 cf       	rjmp	.-80     	; 0x2e98 <vfprintf+0x672>
    2ee8:	91 10       	cpse	r9, r1
    2eea:	80 52       	subi	r24, 0x20	; 32
    2eec:	b7 01       	movw	r22, r14
    2eee:	90 e0       	ldi	r25, 0x00	; 0
    2ef0:	33 d1       	rcall	.+614    	; 0x3158 <fputc>
    2ef2:	0f 5f       	subi	r16, 0xFF	; 255
    2ef4:	1f 4f       	sbci	r17, 0xFF	; 255
    2ef6:	d3 cf       	rjmp	.-90     	; 0x2e9e <vfprintf+0x678>
    2ef8:	23 e0       	ldi	r18, 0x03	; 3
    2efa:	25 15       	cp	r18, r5
    2efc:	10 f4       	brcc	.+4      	; 0x2f02 <vfprintf+0x6dc>
    2efe:	83 e0       	ldi	r24, 0x03	; 3
    2f00:	c1 cf       	rjmp	.-126    	; 0x2e84 <vfprintf+0x65e>
    2f02:	51 2c       	mov	r5, r1
    2f04:	c4 cf       	rjmp	.-120    	; 0x2e8e <vfprintf+0x668>
    2f06:	60 96       	adiw	r28, 0x10	; 16
    2f08:	0f b6       	in	r0, 0x3f	; 63
    2f0a:	f8 94       	cli
    2f0c:	de bf       	out	0x3e, r29	; 62
    2f0e:	0f be       	out	0x3f, r0	; 63
    2f10:	cd bf       	out	0x3d, r28	; 61
    2f12:	df 91       	pop	r29
    2f14:	cf 91       	pop	r28
    2f16:	1f 91       	pop	r17
    2f18:	0f 91       	pop	r16
    2f1a:	ff 90       	pop	r15
    2f1c:	ef 90       	pop	r14
    2f1e:	df 90       	pop	r13
    2f20:	cf 90       	pop	r12
    2f22:	bf 90       	pop	r11
    2f24:	af 90       	pop	r10
    2f26:	9f 90       	pop	r9
    2f28:	8f 90       	pop	r8
    2f2a:	7f 90       	pop	r7
    2f2c:	6f 90       	pop	r6
    2f2e:	5f 90       	pop	r5
    2f30:	4f 90       	pop	r4
    2f32:	3f 90       	pop	r3
    2f34:	2f 90       	pop	r2
    2f36:	08 95       	ret

00002f38 <__udivmodsi4>:
    2f38:	a1 e2       	ldi	r26, 0x21	; 33
    2f3a:	1a 2e       	mov	r1, r26
    2f3c:	aa 1b       	sub	r26, r26
    2f3e:	bb 1b       	sub	r27, r27
    2f40:	fd 01       	movw	r30, r26
    2f42:	0d c0       	rjmp	.+26     	; 0x2f5e <__udivmodsi4_ep>

00002f44 <__udivmodsi4_loop>:
    2f44:	aa 1f       	adc	r26, r26
    2f46:	bb 1f       	adc	r27, r27
    2f48:	ee 1f       	adc	r30, r30
    2f4a:	ff 1f       	adc	r31, r31
    2f4c:	a2 17       	cp	r26, r18
    2f4e:	b3 07       	cpc	r27, r19
    2f50:	e4 07       	cpc	r30, r20
    2f52:	f5 07       	cpc	r31, r21
    2f54:	20 f0       	brcs	.+8      	; 0x2f5e <__udivmodsi4_ep>
    2f56:	a2 1b       	sub	r26, r18
    2f58:	b3 0b       	sbc	r27, r19
    2f5a:	e4 0b       	sbc	r30, r20
    2f5c:	f5 0b       	sbc	r31, r21

00002f5e <__udivmodsi4_ep>:
    2f5e:	66 1f       	adc	r22, r22
    2f60:	77 1f       	adc	r23, r23
    2f62:	88 1f       	adc	r24, r24
    2f64:	99 1f       	adc	r25, r25
    2f66:	1a 94       	dec	r1
    2f68:	69 f7       	brne	.-38     	; 0x2f44 <__udivmodsi4_loop>
    2f6a:	60 95       	com	r22
    2f6c:	70 95       	com	r23
    2f6e:	80 95       	com	r24
    2f70:	90 95       	com	r25
    2f72:	9b 01       	movw	r18, r22
    2f74:	ac 01       	movw	r20, r24
    2f76:	bd 01       	movw	r22, r26
    2f78:	cf 01       	movw	r24, r30
    2f7a:	08 95       	ret

00002f7c <__ftoa_engine>:
    2f7c:	28 30       	cpi	r18, 0x08	; 8
    2f7e:	08 f0       	brcs	.+2      	; 0x2f82 <__ftoa_engine+0x6>
    2f80:	27 e0       	ldi	r18, 0x07	; 7
    2f82:	33 27       	eor	r19, r19
    2f84:	da 01       	movw	r26, r20
    2f86:	99 0f       	add	r25, r25
    2f88:	31 1d       	adc	r19, r1
    2f8a:	87 fd       	sbrc	r24, 7
    2f8c:	91 60       	ori	r25, 0x01	; 1
    2f8e:	00 96       	adiw	r24, 0x00	; 0
    2f90:	61 05       	cpc	r22, r1
    2f92:	71 05       	cpc	r23, r1
    2f94:	39 f4       	brne	.+14     	; 0x2fa4 <__ftoa_engine+0x28>
    2f96:	32 60       	ori	r19, 0x02	; 2
    2f98:	2e 5f       	subi	r18, 0xFE	; 254
    2f9a:	3d 93       	st	X+, r19
    2f9c:	30 e3       	ldi	r19, 0x30	; 48
    2f9e:	2a 95       	dec	r18
    2fa0:	e1 f7       	brne	.-8      	; 0x2f9a <__ftoa_engine+0x1e>
    2fa2:	08 95       	ret
    2fa4:	9f 3f       	cpi	r25, 0xFF	; 255
    2fa6:	30 f0       	brcs	.+12     	; 0x2fb4 <__ftoa_engine+0x38>
    2fa8:	80 38       	cpi	r24, 0x80	; 128
    2faa:	71 05       	cpc	r23, r1
    2fac:	61 05       	cpc	r22, r1
    2fae:	09 f0       	breq	.+2      	; 0x2fb2 <__ftoa_engine+0x36>
    2fb0:	3c 5f       	subi	r19, 0xFC	; 252
    2fb2:	3c 5f       	subi	r19, 0xFC	; 252
    2fb4:	3d 93       	st	X+, r19
    2fb6:	91 30       	cpi	r25, 0x01	; 1
    2fb8:	08 f0       	brcs	.+2      	; 0x2fbc <__ftoa_engine+0x40>
    2fba:	80 68       	ori	r24, 0x80	; 128
    2fbc:	91 1d       	adc	r25, r1
    2fbe:	df 93       	push	r29
    2fc0:	cf 93       	push	r28
    2fc2:	1f 93       	push	r17
    2fc4:	0f 93       	push	r16
    2fc6:	ff 92       	push	r15
    2fc8:	ef 92       	push	r14
    2fca:	19 2f       	mov	r17, r25
    2fcc:	98 7f       	andi	r25, 0xF8	; 248
    2fce:	96 95       	lsr	r25
    2fd0:	e9 2f       	mov	r30, r25
    2fd2:	96 95       	lsr	r25
    2fd4:	96 95       	lsr	r25
    2fd6:	e9 0f       	add	r30, r25
    2fd8:	ff 27       	eor	r31, r31
    2fda:	ea 5b       	subi	r30, 0xBA	; 186
    2fdc:	fe 4f       	sbci	r31, 0xFE	; 254
    2fde:	99 27       	eor	r25, r25
    2fe0:	33 27       	eor	r19, r19
    2fe2:	ee 24       	eor	r14, r14
    2fe4:	ff 24       	eor	r15, r15
    2fe6:	a7 01       	movw	r20, r14
    2fe8:	e7 01       	movw	r28, r14
    2fea:	05 90       	lpm	r0, Z+
    2fec:	08 94       	sec
    2fee:	07 94       	ror	r0
    2ff0:	28 f4       	brcc	.+10     	; 0x2ffc <__ftoa_engine+0x80>
    2ff2:	36 0f       	add	r19, r22
    2ff4:	e7 1e       	adc	r14, r23
    2ff6:	f8 1e       	adc	r15, r24
    2ff8:	49 1f       	adc	r20, r25
    2ffa:	51 1d       	adc	r21, r1
    2ffc:	66 0f       	add	r22, r22
    2ffe:	77 1f       	adc	r23, r23
    3000:	88 1f       	adc	r24, r24
    3002:	99 1f       	adc	r25, r25
    3004:	06 94       	lsr	r0
    3006:	a1 f7       	brne	.-24     	; 0x2ff0 <__ftoa_engine+0x74>
    3008:	05 90       	lpm	r0, Z+
    300a:	07 94       	ror	r0
    300c:	28 f4       	brcc	.+10     	; 0x3018 <__ftoa_engine+0x9c>
    300e:	e7 0e       	add	r14, r23
    3010:	f8 1e       	adc	r15, r24
    3012:	49 1f       	adc	r20, r25
    3014:	56 1f       	adc	r21, r22
    3016:	c1 1d       	adc	r28, r1
    3018:	77 0f       	add	r23, r23
    301a:	88 1f       	adc	r24, r24
    301c:	99 1f       	adc	r25, r25
    301e:	66 1f       	adc	r22, r22
    3020:	06 94       	lsr	r0
    3022:	a1 f7       	brne	.-24     	; 0x300c <__ftoa_engine+0x90>
    3024:	05 90       	lpm	r0, Z+
    3026:	07 94       	ror	r0
    3028:	28 f4       	brcc	.+10     	; 0x3034 <__ftoa_engine+0xb8>
    302a:	f8 0e       	add	r15, r24
    302c:	49 1f       	adc	r20, r25
    302e:	56 1f       	adc	r21, r22
    3030:	c7 1f       	adc	r28, r23
    3032:	d1 1d       	adc	r29, r1
    3034:	88 0f       	add	r24, r24
    3036:	99 1f       	adc	r25, r25
    3038:	66 1f       	adc	r22, r22
    303a:	77 1f       	adc	r23, r23
    303c:	06 94       	lsr	r0
    303e:	a1 f7       	brne	.-24     	; 0x3028 <__ftoa_engine+0xac>
    3040:	05 90       	lpm	r0, Z+
    3042:	07 94       	ror	r0
    3044:	20 f4       	brcc	.+8      	; 0x304e <__ftoa_engine+0xd2>
    3046:	49 0f       	add	r20, r25
    3048:	56 1f       	adc	r21, r22
    304a:	c7 1f       	adc	r28, r23
    304c:	d8 1f       	adc	r29, r24
    304e:	99 0f       	add	r25, r25
    3050:	66 1f       	adc	r22, r22
    3052:	77 1f       	adc	r23, r23
    3054:	88 1f       	adc	r24, r24
    3056:	06 94       	lsr	r0
    3058:	a9 f7       	brne	.-22     	; 0x3044 <__ftoa_engine+0xc8>
    305a:	84 91       	lpm	r24, Z
    305c:	10 95       	com	r17
    305e:	17 70       	andi	r17, 0x07	; 7
    3060:	41 f0       	breq	.+16     	; 0x3072 <__ftoa_engine+0xf6>
    3062:	d6 95       	lsr	r29
    3064:	c7 95       	ror	r28
    3066:	57 95       	ror	r21
    3068:	47 95       	ror	r20
    306a:	f7 94       	ror	r15
    306c:	e7 94       	ror	r14
    306e:	1a 95       	dec	r17
    3070:	c1 f7       	brne	.-16     	; 0x3062 <__ftoa_engine+0xe6>
    3072:	ec ee       	ldi	r30, 0xEC	; 236
    3074:	f0 e0       	ldi	r31, 0x00	; 0
    3076:	68 94       	set
    3078:	15 90       	lpm	r1, Z+
    307a:	15 91       	lpm	r17, Z+
    307c:	35 91       	lpm	r19, Z+
    307e:	65 91       	lpm	r22, Z+
    3080:	95 91       	lpm	r25, Z+
    3082:	05 90       	lpm	r0, Z+
    3084:	7f e2       	ldi	r23, 0x2F	; 47
    3086:	73 95       	inc	r23
    3088:	e1 18       	sub	r14, r1
    308a:	f1 0a       	sbc	r15, r17
    308c:	43 0b       	sbc	r20, r19
    308e:	56 0b       	sbc	r21, r22
    3090:	c9 0b       	sbc	r28, r25
    3092:	d0 09       	sbc	r29, r0
    3094:	c0 f7       	brcc	.-16     	; 0x3086 <__ftoa_engine+0x10a>
    3096:	e1 0c       	add	r14, r1
    3098:	f1 1e       	adc	r15, r17
    309a:	43 1f       	adc	r20, r19
    309c:	56 1f       	adc	r21, r22
    309e:	c9 1f       	adc	r28, r25
    30a0:	d0 1d       	adc	r29, r0
    30a2:	7e f4       	brtc	.+30     	; 0x30c2 <__ftoa_engine+0x146>
    30a4:	70 33       	cpi	r23, 0x30	; 48
    30a6:	11 f4       	brne	.+4      	; 0x30ac <__ftoa_engine+0x130>
    30a8:	8a 95       	dec	r24
    30aa:	e6 cf       	rjmp	.-52     	; 0x3078 <__ftoa_engine+0xfc>
    30ac:	e8 94       	clt
    30ae:	01 50       	subi	r16, 0x01	; 1
    30b0:	30 f0       	brcs	.+12     	; 0x30be <__ftoa_engine+0x142>
    30b2:	08 0f       	add	r16, r24
    30b4:	0a f4       	brpl	.+2      	; 0x30b8 <__ftoa_engine+0x13c>
    30b6:	00 27       	eor	r16, r16
    30b8:	02 17       	cp	r16, r18
    30ba:	08 f4       	brcc	.+2      	; 0x30be <__ftoa_engine+0x142>
    30bc:	20 2f       	mov	r18, r16
    30be:	23 95       	inc	r18
    30c0:	02 2f       	mov	r16, r18
    30c2:	7a 33       	cpi	r23, 0x3A	; 58
    30c4:	28 f0       	brcs	.+10     	; 0x30d0 <__ftoa_engine+0x154>
    30c6:	79 e3       	ldi	r23, 0x39	; 57
    30c8:	7d 93       	st	X+, r23
    30ca:	2a 95       	dec	r18
    30cc:	e9 f7       	brne	.-6      	; 0x30c8 <__ftoa_engine+0x14c>
    30ce:	10 c0       	rjmp	.+32     	; 0x30f0 <__ftoa_engine+0x174>
    30d0:	7d 93       	st	X+, r23
    30d2:	2a 95       	dec	r18
    30d4:	89 f6       	brne	.-94     	; 0x3078 <__ftoa_engine+0xfc>
    30d6:	06 94       	lsr	r0
    30d8:	97 95       	ror	r25
    30da:	67 95       	ror	r22
    30dc:	37 95       	ror	r19
    30de:	17 95       	ror	r17
    30e0:	17 94       	ror	r1
    30e2:	e1 18       	sub	r14, r1
    30e4:	f1 0a       	sbc	r15, r17
    30e6:	43 0b       	sbc	r20, r19
    30e8:	56 0b       	sbc	r21, r22
    30ea:	c9 0b       	sbc	r28, r25
    30ec:	d0 09       	sbc	r29, r0
    30ee:	98 f0       	brcs	.+38     	; 0x3116 <__ftoa_engine+0x19a>
    30f0:	23 95       	inc	r18
    30f2:	7e 91       	ld	r23, -X
    30f4:	73 95       	inc	r23
    30f6:	7a 33       	cpi	r23, 0x3A	; 58
    30f8:	08 f0       	brcs	.+2      	; 0x30fc <__ftoa_engine+0x180>
    30fa:	70 e3       	ldi	r23, 0x30	; 48
    30fc:	7c 93       	st	X, r23
    30fe:	20 13       	cpse	r18, r16
    3100:	b8 f7       	brcc	.-18     	; 0x30f0 <__ftoa_engine+0x174>
    3102:	7e 91       	ld	r23, -X
    3104:	70 61       	ori	r23, 0x10	; 16
    3106:	7d 93       	st	X+, r23
    3108:	30 f0       	brcs	.+12     	; 0x3116 <__ftoa_engine+0x19a>
    310a:	83 95       	inc	r24
    310c:	71 e3       	ldi	r23, 0x31	; 49
    310e:	7d 93       	st	X+, r23
    3110:	70 e3       	ldi	r23, 0x30	; 48
    3112:	2a 95       	dec	r18
    3114:	e1 f7       	brne	.-8      	; 0x310e <__ftoa_engine+0x192>
    3116:	11 24       	eor	r1, r1
    3118:	ef 90       	pop	r14
    311a:	ff 90       	pop	r15
    311c:	0f 91       	pop	r16
    311e:	1f 91       	pop	r17
    3120:	cf 91       	pop	r28
    3122:	df 91       	pop	r29
    3124:	99 27       	eor	r25, r25
    3126:	87 fd       	sbrc	r24, 7
    3128:	90 95       	com	r25
    312a:	08 95       	ret

0000312c <strnlen_P>:
    312c:	fc 01       	movw	r30, r24
    312e:	05 90       	lpm	r0, Z+
    3130:	61 50       	subi	r22, 0x01	; 1
    3132:	70 40       	sbci	r23, 0x00	; 0
    3134:	01 10       	cpse	r0, r1
    3136:	d8 f7       	brcc	.-10     	; 0x312e <strnlen_P+0x2>
    3138:	80 95       	com	r24
    313a:	90 95       	com	r25
    313c:	8e 0f       	add	r24, r30
    313e:	9f 1f       	adc	r25, r31
    3140:	08 95       	ret

00003142 <strnlen>:
    3142:	fc 01       	movw	r30, r24
    3144:	61 50       	subi	r22, 0x01	; 1
    3146:	70 40       	sbci	r23, 0x00	; 0
    3148:	01 90       	ld	r0, Z+
    314a:	01 10       	cpse	r0, r1
    314c:	d8 f7       	brcc	.-10     	; 0x3144 <strnlen+0x2>
    314e:	80 95       	com	r24
    3150:	90 95       	com	r25
    3152:	8e 0f       	add	r24, r30
    3154:	9f 1f       	adc	r25, r31
    3156:	08 95       	ret

00003158 <fputc>:
    3158:	0f 93       	push	r16
    315a:	1f 93       	push	r17
    315c:	cf 93       	push	r28
    315e:	df 93       	push	r29
    3160:	fb 01       	movw	r30, r22
    3162:	23 81       	ldd	r18, Z+3	; 0x03
    3164:	21 fd       	sbrc	r18, 1
    3166:	03 c0       	rjmp	.+6      	; 0x316e <fputc+0x16>
    3168:	8f ef       	ldi	r24, 0xFF	; 255
    316a:	9f ef       	ldi	r25, 0xFF	; 255
    316c:	2c c0       	rjmp	.+88     	; 0x31c6 <fputc+0x6e>
    316e:	22 ff       	sbrs	r18, 2
    3170:	16 c0       	rjmp	.+44     	; 0x319e <fputc+0x46>
    3172:	46 81       	ldd	r20, Z+6	; 0x06
    3174:	57 81       	ldd	r21, Z+7	; 0x07
    3176:	24 81       	ldd	r18, Z+4	; 0x04
    3178:	35 81       	ldd	r19, Z+5	; 0x05
    317a:	42 17       	cp	r20, r18
    317c:	53 07       	cpc	r21, r19
    317e:	44 f4       	brge	.+16     	; 0x3190 <fputc+0x38>
    3180:	a0 81       	ld	r26, Z
    3182:	b1 81       	ldd	r27, Z+1	; 0x01
    3184:	9d 01       	movw	r18, r26
    3186:	2f 5f       	subi	r18, 0xFF	; 255
    3188:	3f 4f       	sbci	r19, 0xFF	; 255
    318a:	31 83       	std	Z+1, r19	; 0x01
    318c:	20 83       	st	Z, r18
    318e:	8c 93       	st	X, r24
    3190:	26 81       	ldd	r18, Z+6	; 0x06
    3192:	37 81       	ldd	r19, Z+7	; 0x07
    3194:	2f 5f       	subi	r18, 0xFF	; 255
    3196:	3f 4f       	sbci	r19, 0xFF	; 255
    3198:	37 83       	std	Z+7, r19	; 0x07
    319a:	26 83       	std	Z+6, r18	; 0x06
    319c:	14 c0       	rjmp	.+40     	; 0x31c6 <fputc+0x6e>
    319e:	8b 01       	movw	r16, r22
    31a0:	ec 01       	movw	r28, r24
    31a2:	fb 01       	movw	r30, r22
    31a4:	00 84       	ldd	r0, Z+8	; 0x08
    31a6:	f1 85       	ldd	r31, Z+9	; 0x09
    31a8:	e0 2d       	mov	r30, r0
    31aa:	19 95       	eicall
    31ac:	89 2b       	or	r24, r25
    31ae:	e1 f6       	brne	.-72     	; 0x3168 <fputc+0x10>
    31b0:	d8 01       	movw	r26, r16
    31b2:	16 96       	adiw	r26, 0x06	; 6
    31b4:	8d 91       	ld	r24, X+
    31b6:	9c 91       	ld	r25, X
    31b8:	17 97       	sbiw	r26, 0x07	; 7
    31ba:	01 96       	adiw	r24, 0x01	; 1
    31bc:	17 96       	adiw	r26, 0x07	; 7
    31be:	9c 93       	st	X, r25
    31c0:	8e 93       	st	-X, r24
    31c2:	16 97       	sbiw	r26, 0x06	; 6
    31c4:	ce 01       	movw	r24, r28
    31c6:	df 91       	pop	r29
    31c8:	cf 91       	pop	r28
    31ca:	1f 91       	pop	r17
    31cc:	0f 91       	pop	r16
    31ce:	08 95       	ret

000031d0 <sprintf>:
    31d0:	0f 93       	push	r16
    31d2:	1f 93       	push	r17
    31d4:	cf 93       	push	r28
    31d6:	df 93       	push	r29
    31d8:	cd b7       	in	r28, 0x3d	; 61
    31da:	de b7       	in	r29, 0x3e	; 62
    31dc:	2e 97       	sbiw	r28, 0x0e	; 14
    31de:	0f b6       	in	r0, 0x3f	; 63
    31e0:	f8 94       	cli
    31e2:	de bf       	out	0x3e, r29	; 62
    31e4:	0f be       	out	0x3f, r0	; 63
    31e6:	cd bf       	out	0x3d, r28	; 61
    31e8:	0e 89       	ldd	r16, Y+22	; 0x16
    31ea:	1f 89       	ldd	r17, Y+23	; 0x17
    31ec:	86 e0       	ldi	r24, 0x06	; 6
    31ee:	8c 83       	std	Y+4, r24	; 0x04
    31f0:	1a 83       	std	Y+2, r17	; 0x02
    31f2:	09 83       	std	Y+1, r16	; 0x01
    31f4:	8f ef       	ldi	r24, 0xFF	; 255
    31f6:	9f e7       	ldi	r25, 0x7F	; 127
    31f8:	9e 83       	std	Y+6, r25	; 0x06
    31fa:	8d 83       	std	Y+5, r24	; 0x05
    31fc:	ae 01       	movw	r20, r28
    31fe:	46 5e       	subi	r20, 0xE6	; 230
    3200:	5f 4f       	sbci	r21, 0xFF	; 255
    3202:	68 8d       	ldd	r22, Y+24	; 0x18
    3204:	79 8d       	ldd	r23, Y+25	; 0x19
    3206:	ce 01       	movw	r24, r28
    3208:	01 96       	adiw	r24, 0x01	; 1
    320a:	0d db       	rcall	.-2534   	; 0x2826 <vfprintf>
    320c:	ef 81       	ldd	r30, Y+7	; 0x07
    320e:	f8 85       	ldd	r31, Y+8	; 0x08
    3210:	e0 0f       	add	r30, r16
    3212:	f1 1f       	adc	r31, r17
    3214:	10 82       	st	Z, r1
    3216:	2e 96       	adiw	r28, 0x0e	; 14
    3218:	0f b6       	in	r0, 0x3f	; 63
    321a:	f8 94       	cli
    321c:	de bf       	out	0x3e, r29	; 62
    321e:	0f be       	out	0x3f, r0	; 63
    3220:	cd bf       	out	0x3d, r28	; 61
    3222:	df 91       	pop	r29
    3224:	cf 91       	pop	r28
    3226:	1f 91       	pop	r17
    3228:	0f 91       	pop	r16
    322a:	08 95       	ret

0000322c <__ultoa_invert>:
    322c:	fa 01       	movw	r30, r20
    322e:	aa 27       	eor	r26, r26
    3230:	28 30       	cpi	r18, 0x08	; 8
    3232:	51 f1       	breq	.+84     	; 0x3288 <__ultoa_invert+0x5c>
    3234:	20 31       	cpi	r18, 0x10	; 16
    3236:	81 f1       	breq	.+96     	; 0x3298 <__ultoa_invert+0x6c>
    3238:	e8 94       	clt
    323a:	6f 93       	push	r22
    323c:	6e 7f       	andi	r22, 0xFE	; 254
    323e:	6e 5f       	subi	r22, 0xFE	; 254
    3240:	7f 4f       	sbci	r23, 0xFF	; 255
    3242:	8f 4f       	sbci	r24, 0xFF	; 255
    3244:	9f 4f       	sbci	r25, 0xFF	; 255
    3246:	af 4f       	sbci	r26, 0xFF	; 255
    3248:	b1 e0       	ldi	r27, 0x01	; 1
    324a:	3e d0       	rcall	.+124    	; 0x32c8 <__ultoa_invert+0x9c>
    324c:	b4 e0       	ldi	r27, 0x04	; 4
    324e:	3c d0       	rcall	.+120    	; 0x32c8 <__ultoa_invert+0x9c>
    3250:	67 0f       	add	r22, r23
    3252:	78 1f       	adc	r23, r24
    3254:	89 1f       	adc	r24, r25
    3256:	9a 1f       	adc	r25, r26
    3258:	a1 1d       	adc	r26, r1
    325a:	68 0f       	add	r22, r24
    325c:	79 1f       	adc	r23, r25
    325e:	8a 1f       	adc	r24, r26
    3260:	91 1d       	adc	r25, r1
    3262:	a1 1d       	adc	r26, r1
    3264:	6a 0f       	add	r22, r26
    3266:	71 1d       	adc	r23, r1
    3268:	81 1d       	adc	r24, r1
    326a:	91 1d       	adc	r25, r1
    326c:	a1 1d       	adc	r26, r1
    326e:	20 d0       	rcall	.+64     	; 0x32b0 <__ultoa_invert+0x84>
    3270:	09 f4       	brne	.+2      	; 0x3274 <__ultoa_invert+0x48>
    3272:	68 94       	set
    3274:	3f 91       	pop	r19
    3276:	2a e0       	ldi	r18, 0x0A	; 10
    3278:	26 9f       	mul	r18, r22
    327a:	11 24       	eor	r1, r1
    327c:	30 19       	sub	r19, r0
    327e:	30 5d       	subi	r19, 0xD0	; 208
    3280:	31 93       	st	Z+, r19
    3282:	de f6       	brtc	.-74     	; 0x323a <__ultoa_invert+0xe>
    3284:	cf 01       	movw	r24, r30
    3286:	08 95       	ret
    3288:	46 2f       	mov	r20, r22
    328a:	47 70       	andi	r20, 0x07	; 7
    328c:	40 5d       	subi	r20, 0xD0	; 208
    328e:	41 93       	st	Z+, r20
    3290:	b3 e0       	ldi	r27, 0x03	; 3
    3292:	0f d0       	rcall	.+30     	; 0x32b2 <__ultoa_invert+0x86>
    3294:	c9 f7       	brne	.-14     	; 0x3288 <__ultoa_invert+0x5c>
    3296:	f6 cf       	rjmp	.-20     	; 0x3284 <__ultoa_invert+0x58>
    3298:	46 2f       	mov	r20, r22
    329a:	4f 70       	andi	r20, 0x0F	; 15
    329c:	40 5d       	subi	r20, 0xD0	; 208
    329e:	4a 33       	cpi	r20, 0x3A	; 58
    32a0:	18 f0       	brcs	.+6      	; 0x32a8 <__ultoa_invert+0x7c>
    32a2:	49 5d       	subi	r20, 0xD9	; 217
    32a4:	31 fd       	sbrc	r19, 1
    32a6:	40 52       	subi	r20, 0x20	; 32
    32a8:	41 93       	st	Z+, r20
    32aa:	02 d0       	rcall	.+4      	; 0x32b0 <__ultoa_invert+0x84>
    32ac:	a9 f7       	brne	.-22     	; 0x3298 <__ultoa_invert+0x6c>
    32ae:	ea cf       	rjmp	.-44     	; 0x3284 <__ultoa_invert+0x58>
    32b0:	b4 e0       	ldi	r27, 0x04	; 4
    32b2:	a6 95       	lsr	r26
    32b4:	97 95       	ror	r25
    32b6:	87 95       	ror	r24
    32b8:	77 95       	ror	r23
    32ba:	67 95       	ror	r22
    32bc:	ba 95       	dec	r27
    32be:	c9 f7       	brne	.-14     	; 0x32b2 <__ultoa_invert+0x86>
    32c0:	00 97       	sbiw	r24, 0x00	; 0
    32c2:	61 05       	cpc	r22, r1
    32c4:	71 05       	cpc	r23, r1
    32c6:	08 95       	ret
    32c8:	9b 01       	movw	r18, r22
    32ca:	ac 01       	movw	r20, r24
    32cc:	0a 2e       	mov	r0, r26
    32ce:	06 94       	lsr	r0
    32d0:	57 95       	ror	r21
    32d2:	47 95       	ror	r20
    32d4:	37 95       	ror	r19
    32d6:	27 95       	ror	r18
    32d8:	ba 95       	dec	r27
    32da:	c9 f7       	brne	.-14     	; 0x32ce <__ultoa_invert+0xa2>
    32dc:	62 0f       	add	r22, r18
    32de:	73 1f       	adc	r23, r19
    32e0:	84 1f       	adc	r24, r20
    32e2:	95 1f       	adc	r25, r21
    32e4:	a0 1d       	adc	r26, r0
    32e6:	08 95       	ret

000032e8 <eeprom_read_byte>:
    32e8:	f9 99       	sbic	0x1f, 1	; 31
    32ea:	fe cf       	rjmp	.-4      	; 0x32e8 <eeprom_read_byte>
    32ec:	92 bd       	out	0x22, r25	; 34
    32ee:	81 bd       	out	0x21, r24	; 33
    32f0:	f8 9a       	sbi	0x1f, 0	; 31
    32f2:	99 27       	eor	r25, r25
    32f4:	80 b5       	in	r24, 0x20	; 32
    32f6:	08 95       	ret

000032f8 <_exit>:
    32f8:	f8 94       	cli

000032fa <__stop_program>:
    32fa:	ff cf       	rjmp	.-2      	; 0x32fa <__stop_program>
